
WebbotFirst.elf:     file format elf32-avr

Sections:
Idx Name          Size      VMA       LMA       File off  Algn
  0 .text         0000508e  00000000  00000000  00000094  2**1
                  CONTENTS, ALLOC, LOAD, READONLY, CODE
  1 .data         00000086  00800060  0000508e  00005122  2**0
                  CONTENTS, ALLOC, LOAD, DATA
  2 .bss          0000030f  008000e6  008000e6  000051a8  2**0
                  ALLOC
  3 .debug_aranges 000002a0  00000000  00000000  000051a8  2**0
                  CONTENTS, READONLY, DEBUGGING
  4 .debug_pubnames 000012a7  00000000  00000000  00005448  2**0
                  CONTENTS, READONLY, DEBUGGING
  5 .debug_info   0000d900  00000000  00000000  000066ef  2**0
                  CONTENTS, READONLY, DEBUGGING
  6 .debug_abbrev 00002b7d  00000000  00000000  00013fef  2**0
                  CONTENTS, READONLY, DEBUGGING
  7 .debug_line   000054da  00000000  00000000  00016b6c  2**0
                  CONTENTS, READONLY, DEBUGGING
  8 .debug_frame  00000cf0  00000000  00000000  0001c048  2**2
                  CONTENTS, READONLY, DEBUGGING
  9 .debug_str    00002285  00000000  00000000  0001cd38  2**0
                  CONTENTS, READONLY, DEBUGGING
 10 .debug_loc    00007187  00000000  00000000  0001efbd  2**0
                  CONTENTS, READONLY, DEBUGGING
 11 .debug_ranges 000001c8  00000000  00000000  00026144  2**0
                  CONTENTS, READONLY, DEBUGGING

Disassembly of section .text:

00000000 <__vectors>:
       0:	0c 94 79 01 	jmp	0x2f2	; 0x2f2 <__ctors_end>
       4:	0c 94 96 01 	jmp	0x32c	; 0x32c <__bad_interrupt>
       8:	0c 94 96 01 	jmp	0x32c	; 0x32c <__bad_interrupt>
       c:	0c 94 96 01 	jmp	0x32c	; 0x32c <__bad_interrupt>
      10:	0c 94 55 09 	jmp	0x12aa	; 0x12aa <__vector_4>
      14:	0c 94 ed 09 	jmp	0x13da	; 0x13da <__vector_5>
      18:	0c 94 5f 0a 	jmp	0x14be	; 0x14be <__vector_6>
      1c:	0c 94 a1 09 	jmp	0x1342	; 0x1342 <__vector_7>
      20:	0c 94 7b 09 	jmp	0x12f6	; 0x12f6 <__vector_8>
      24:	0c 94 13 0a 	jmp	0x1426	; 0x1426 <__vector_9>
      28:	0c 94 c7 09 	jmp	0x138e	; 0x138e <__vector_10>
      2c:	0c 94 39 0a 	jmp	0x1472	; 0x1472 <__vector_11>
      30:	0c 94 96 01 	jmp	0x32c	; 0x32c <__bad_interrupt>
      34:	0c 94 f9 08 	jmp	0x11f2	; 0x11f2 <__vector_13>
      38:	0c 94 96 01 	jmp	0x32c	; 0x32c <__bad_interrupt>
      3c:	0c 94 24 09 	jmp	0x1248	; 0x1248 <__vector_15>
      40:	0c 94 96 01 	jmp	0x32c	; 0x32c <__bad_interrupt>
      44:	0c 94 96 01 	jmp	0x32c	; 0x32c <__bad_interrupt>
      48:	0c 94 96 01 	jmp	0x32c	; 0x32c <__bad_interrupt>
      4c:	0c 94 96 01 	jmp	0x32c	; 0x32c <__bad_interrupt>
      50:	0c 94 96 01 	jmp	0x32c	; 0x32c <__bad_interrupt>

00000054 <AVcc_MV>:
      54:	88 13                                               ..

00000056 <_PORTA>:
      56:	3b 00 3a 00 39 00                                   ;.:.9.

0000005c <_A0>:
      5c:	56 00 01                                            V..

0000005f <_A1>:
      5f:	56 00 02                                            V..

00000062 <_A2>:
      62:	56 00 04                                            V..

00000065 <_A3>:
      65:	56 00 08                                            V..

00000068 <_A4>:
      68:	56 00 10                                            V..

0000006b <_A5>:
      6b:	56 00 20                                            V. 

0000006e <_A6>:
      6e:	56 00 40                                            V.@

00000071 <_A7>:
      71:	56 00 80                                            V..

00000074 <_PORTB>:
      74:	38 00 37 00 36 00                                   8.7.6.

0000007a <_B0>:
      7a:	74 00 01                                            t..

0000007d <_B1>:
      7d:	74 00 02                                            t..

00000080 <_B2>:
      80:	74 00 04                                            t..

00000083 <_B3>:
      83:	74 00 08                                            t..

00000086 <_B4>:
      86:	74 00 10                                            t..

00000089 <_B5>:
      89:	74 00 20                                            t. 

0000008c <_B6>:
      8c:	74 00 40                                            t.@

0000008f <_B7>:
      8f:	74 00 80                                            t..

00000092 <_PORTC>:
      92:	35 00 34 00 33 00                                   5.4.3.

00000098 <_C0>:
      98:	92 00 01                                            ...

0000009b <_C1>:
      9b:	92 00 02                                            ...

0000009e <_C2>:
      9e:	92 00 04                                            ...

000000a1 <_C3>:
      a1:	92 00 08                                            ...

000000a4 <_C4>:
      a4:	92 00 10                                            ...

000000a7 <_C5>:
      a7:	92 00 20                                            .. 

000000aa <_C6>:
      aa:	92 00 40                                            ..@

000000ad <_C7>:
      ad:	92 00 80                                            ...

000000b0 <_PORTD>:
      b0:	32 00 31 00 30 00                                   2.1.0.

000000b6 <_D0>:
      b6:	b0 00 01                                            ...

000000b9 <_D1>:
      b9:	b0 00 02                                            ...

000000bc <_D2>:
      bc:	b0 00 04                                            ...

000000bf <_D3>:
      bf:	b0 00 08                                            ...

000000c2 <_D4>:
      c2:	b0 00 10                                            ...

000000c5 <_D5>:
      c5:	b0 00 20                                            .. 

000000c8 <_D6>:
      c8:	b0 00 40                                            ..@

000000cb <_D7>:
      cb:	b0 00 80                                            ...

000000ce <__timer0Compare>:
      ce:	f1 00 00 59 00 02 5c 00 58 00 02 53 00 04 83 00     ...Y..\.X..S....

000000de <__timer1Compare>:
      de:	00 01 01 59 00 10 4a 00 58 00 10 4f 00 06 c5 00     ...Y..J.X..O....
      ee:	04 01 01 59 00 08 48 00 58 00 08 4f 00 04 c2 00     ...Y..H.X..O....

000000fe <__timer2Compare>:
      fe:	13 01 02 59 00 80 43 00 58 00 80 45 00 04 cb 00     ...Y..C.X..E....

0000010e <pgm_Timers>:
     10e:	e6 00 52 00 53 00 00 00 01 33 00 53 00 40 53 00     ..R.S....3.S.@S.
     11e:	08 00 00 01 00 00 01 ce 00 59 00 01 58 00 01 00     .........Y..X...
     12e:	00 00 00 01 00 00 01 00 00 01 00 00 f5 00 4c 00     ..............L.
     13e:	4e 00 ff 00 02 ff df 4f 00 01 4f 00 02 4e 00 08     N......O..O..N..
     14e:	4e 00 10 de 00 59 00 04 58 00 04 46 00 59 00 20     N....Y..X..F.Y. 
     15e:	58 00 20 4e 00 40 c8 00 08 01 44 00 45 00 00 ff     X. N.@....D.E...
     16e:	01 33 00 45 00 40 45 00 08 00 00 01 00 00 01 fe     .3.E.@E.........
     17e:	00 59 00 40 58 00 40 00 00 00 00 01 00 00 01 00     .Y.@X.@.........
     18e:	00 01 00 00                                         ....

00000192 <__c.2937>:
     192:	44 61 74 61 20 20 30 3a 00                          Data  0:.

0000019b <__c.2935>:
     19b:	44 61 74 61 20 20 31 3a 00                          Data  1:.

000001a4 <__c.2933>:
     1a4:	52 69 67 68 74 20 58 3a 00                          Right X:.

000001ad <__c.2931>:
     1ad:	52 69 67 68 74 20 59 3a 00                          Right Y:.

000001b6 <__c.2929>:
     1b6:	4c 65 66 74 20 20 58 3a 00                          Left  X:.

000001bf <__c.2927>:
     1bf:	42 54 4e 20 58 20 50 3a 00                          BTN X P:.

000001c8 <__c.2925>:
     1c8:	4c 65 66 74 20 20 59 3a 00                          Left  Y:.

000001d1 <__c.2923>:
     1d1:	53 68 61 70 65 20 58 3a 00                          Shape X:.

000001da <__c.2921>:
     1da:	44 20 50 61 64 20 58 3a 00                          D Pad X:.

000001e3 <__c.2919>:
     1e3:	53 68 61 70 65 20 59 3a 00                          Shape Y:.

000001ec <__c.2917>:
     1ec:	44 20 50 61 64 20 59 3a 00                          D Pad Y:.

000001f5 <__c.2915>:
     1f5:	52 61 77 20 42 54 4e 3a 00                          Raw BTN:.

000001fe <__c.2904>:
     1fe:	30 00                                               0.

00000200 <__c.2902>:
     200:	3c 00                                               <.

00000202 <__c.2900>:
     202:	43 00                                               C.

00000204 <__c.2898>:
     204:	39 00                                               9.

00000206 <__c.2896>:
     206:	36 00                                               6.

00000208 <__c.2894>:
     208:	33 00                                               3.

0000020a <__c.2892>:
     20a:	38 00                                               8.

0000020c <__c.2890>:
     20c:	35 00                                               5.

0000020e <__c.2888>:
     20e:	32 00                                               2.

00000210 <__c.2886>:
     210:	37 00                                               7.

00000212 <__c.2884>:
     212:	34 00                                               4.

00000214 <__c.2882>:
     214:	31 00                                               1.

00000216 <__c.2880>:
     216:	41 5a 3a 20 20 20 20 20 20 52 44 3a 00              AZ:      RD:.

00000223 <__c.2878>:
     223:	45 4c 3a 20 20 20 20 20 43 48 47 3a 00              EL:     CHG:.

00000230 <spiBus_list>:
     230:	94 00                                               ..

00000232 <cmd_config>:
     232:	01 43 00 01 00                                      .C...

00000237 <cmd_rumble>:
     237:	01 4d 00 00 01 ff ff ff ff                          .M.......

00000240 <cmd_normal>:
     240:	01 43 00 00 00 00 00 00 00                          .C.......

00000249 <cmd_analog>:
     249:	01 44 00 01 03 00 00 00 00                          .D.......

00000252 <cmd_enterDS2>:
     252:	01 4f 00 ff ff 03 00 00 00                          .O.......

0000025b <reply>:
     25b:	ff ff 80 80 80 80 00 00 00 00 00 00 00 00 00 00     ................
	...

0000026d <HexChars>:
     26d:	30 31 32 33 34 35 36 37 38 39 41 42 43 44 45 46     0123456789ABCDEF
	...

0000027e <c_sw_spi>:
     27e:	93 18 63 16 64 16 65 16 87 18 2e 18 35 17 86 16     ..c.d.e.....5...
     28e:	7d 16                                               }.

00000290 <TimerPrescaleFactor>:
     290:	00 00 01 00 08 00 40 00 00 01 00 04                 ......@.....

0000029c <TimerRTCPrescaleFactor>:
     29c:	00 00 01 00 08 00 20 00 40 00 80 00 00 01 00 04     ...... .@.......

000002ac <__3bit_modes>:
     2ac:	00 01 ff ff 02 03 ff ff ff ff ff 05 ff ff ff 07     ................

000002bc <__2bit_modes>:
     2bc:	00 01 ff ff 02 03                                   ......

000002c2 <__c.2500>:
     2c2:	55 73 65 72 20 45 72 72 6f 72 3a 25 64 0a 00        User Error:%d..

000002d1 <__c.2498>:
     2d1:	57 65 62 62 6f 74 4c 69 62 20 45 72 72 6f 72 3a     WebbotLib Error:
     2e1:	25 64 0a 00                                         %d..

000002e5 <c_hw_uart>:
     2e5:	f9 24 af 25 ed 25 84 25 b6 25 9a 25 00              .$.%.%.%.%.%.

000002f2 <__ctors_end>:
     2f2:	11 24       	eor	r1, r1
     2f4:	1f be       	out	0x3f, r1	; 63
     2f6:	cf e5       	ldi	r28, 0x5F	; 95
     2f8:	d8 e0       	ldi	r29, 0x08	; 8
     2fa:	de bf       	out	0x3e, r29	; 62
     2fc:	cd bf       	out	0x3d, r28	; 61

000002fe <__do_copy_data>:
     2fe:	10 e0       	ldi	r17, 0x00	; 0
     300:	a0 e6       	ldi	r26, 0x60	; 96
     302:	b0 e0       	ldi	r27, 0x00	; 0
     304:	ee e8       	ldi	r30, 0x8E	; 142
     306:	f0 e5       	ldi	r31, 0x50	; 80
     308:	02 c0       	rjmp	.+4      	; 0x30e <.do_copy_data_start>

0000030a <.do_copy_data_loop>:
     30a:	05 90       	lpm	r0, Z+
     30c:	0d 92       	st	X+, r0

0000030e <.do_copy_data_start>:
     30e:	a6 3e       	cpi	r26, 0xE6	; 230
     310:	b1 07       	cpc	r27, r17
     312:	d9 f7       	brne	.-10     	; 0x30a <.do_copy_data_loop>

00000314 <__do_clear_bss>:
     314:	13 e0       	ldi	r17, 0x03	; 3
     316:	a6 ee       	ldi	r26, 0xE6	; 230
     318:	b0 e0       	ldi	r27, 0x00	; 0
     31a:	01 c0       	rjmp	.+2      	; 0x31e <.do_clear_bss_start>

0000031c <.do_clear_bss_loop>:
     31c:	1d 92       	st	X+, r1

0000031e <.do_clear_bss_start>:
     31e:	a5 3f       	cpi	r26, 0xF5	; 245
     320:	b1 07       	cpc	r27, r17
     322:	e1 f7       	brne	.-8      	; 0x31c <.do_clear_bss_loop>
     324:	0e 94 78 11 	call	0x22f0	; 0x22f0 <main>
     328:	0c 94 b3 27 	jmp	0x4f66	; 0x4f66 <exit>

0000032c <__bad_interrupt>:
     32c:	0c 94 00 00 	jmp	0	; 0x0 <__vectors>

00000330 <configure_ports>:

	Set up the I/O ports with their standard settings

*/
void configure_ports(void){
};
     330:	08 95       	ret

00000332 <registerLED>:




void registerLED(void){
}
     332:	08 95       	ret

00000334 <sysInitHardware>:

// Initialise any other hardware, like motor drivers etc, built onto the board
void sysInitHardware(void){
}
     334:	08 95       	ret

00000336 <Wait>:

//***********************************************************************

//********************************************************************************
void Wait(uint8_t time)
{
     336:	90 e0       	ldi	r25, 0x00	; 0

    Thus, at a CPU speed of 1 MHz, delays of up to about 262.1
    milliseconds can be achieved.
 */
static __inline__ void _delay_loop_2(uint16_t __count){
	__asm__ volatile (
     338:	20 e0       	ldi	r18, 0x00	; 0
     33a:	30 e0       	ldi	r19, 0x00	; 0
     33c:	04 c0       	rjmp	.+8      	; 0x346 <Wait+0x10>
     33e:	f9 01       	movw	r30, r18
     340:	31 97       	sbiw	r30, 0x01	; 1
     342:	f1 f7       	brne	.-4      	; 0x340 <Wait+0xa>
   uint8_t i;
   for(i=0;i<time;i++)
     344:	9f 5f       	subi	r25, 0xFF	; 255
     346:	98 17       	cp	r25, r24
     348:	d0 f3       	brcs	.-12     	; 0x33e <Wait+0x8>
      _delay_loop_2(0); 
}
     34a:	08 95       	ret

0000034c <appInitHardware>:

/***********************************************************************************/
// This routine is called once only and allows you to do set up the hardware
// Dont use any 'clock' functions here - use 'delay' functions instead

void appInitHardware(void){
     34c:	0f 93       	push	r16
     34e:	1f 93       	push	r17
// Set UART0 to 19200 baud
uartInit(UART0, 19200);
     350:	8c e6       	ldi	r24, 0x6C	; 108
     352:	90 e0       	ldi	r25, 0x00	; 0
     354:	40 e0       	ldi	r20, 0x00	; 0
     356:	5b e4       	ldi	r21, 0x4B	; 75
     358:	60 e0       	ldi	r22, 0x00	; 0
     35a:	70 e0       	ldi	r23, 0x00	; 0
     35c:	0e 94 ad 0f 	call	0x1f5a	; 0x1f5a <_uartInit>
// Tell rprintf to output to UART0
rprintfInit(&uart0SendByte);
     360:	8f e4       	ldi	r24, 0x4F	; 79
     362:	99 e0       	ldi	r25, 0x09	; 9
     364:	0e 94 98 14 	call	0x2930	; 0x2930 <rprintfInit>
// Initialise the SPI bus
spiBusInit(&spiBus,true);
     368:	8a eb       	ldi	r24, 0xBA	; 186
     36a:	90 e0       	ldi	r25, 0x00	; 0
     36c:	6f ef       	ldi	r22, 0xFF	; 255
     36e:	0e 94 6c 0d 	call	0x1ad8	; 0x1ad8 <spiAbstractBusInit>
//servoPWMInit(&bank1);
//servosInit(&bank1, TIMER0);
pwmInitHertz(B3, 65, 9, null);
     372:	83 e8       	ldi	r24, 0x83	; 131
     374:	90 e0       	ldi	r25, 0x00	; 0
     376:	41 e4       	ldi	r20, 0x41	; 65
     378:	50 e0       	ldi	r21, 0x00	; 0
     37a:	60 e0       	ldi	r22, 0x00	; 0
     37c:	70 e0       	ldi	r23, 0x00	; 0
     37e:	29 e0       	ldi	r18, 0x09	; 9
     380:	00 e0       	ldi	r16, 0x00	; 0
     382:	10 e0       	ldi	r17, 0x00	; 0
     384:	0e 94 4f 14 	call	0x289e	; 0x289e <pwmInitHertz>

}
     388:	1f 91       	pop	r17
     38a:	0f 91       	pop	r16
     38c:	08 95       	ret

0000038e <service_PS2_Controller>:
	pin_make_input(F3, TRUE);		// set toggle switch to input. pull-up enabled.
	pin_make_input(D4, FALSE);		// set PACTL pin to input.
*/

/***********************************************************************************/
uint8_t service_PS2_Controller(uint8_t *data){
     38e:	0f 93       	push	r16
     390:	1f 93       	push	r17
     392:	cf 93       	push	r28
     394:	df 93       	push	r29
     396:	ec 01       	movw	r28, r24
	int ps2 = sonyPS2_read(&controller1);
     398:	84 e9       	ldi	r24, 0x94	; 148
     39a:	90 e0       	ldi	r25, 0x00	; 0
     39c:	0e 94 45 0c 	call	0x188a	; 0x188a <sonyPS2_read>
     3a0:	08 2f       	mov	r16, r24
     3a2:	11 27       	eor	r17, r17
     3a4:	07 fd       	sbrc	r16, 7
     3a6:	10 95       	com	r17

    if(ps2){
     3a8:	01 15       	cp	r16, r1
     3aa:	11 05       	cpc	r17, r1
     3ac:	19 f1       	breq	.+70     	; 0x3f4 <service_PS2_Controller+0x66>
    	data[TX_PS2_1] = 0xFF & sonyPS2_buttonsRaw(&controller1);
     3ae:	84 e9       	ldi	r24, 0x94	; 148
     3b0:	90 e0       	ldi	r25, 0x00	; 0
     3b2:	0e 94 9a 0a 	call	0x1534	; 0x1534 <sonyPS2_buttonsRaw>
     3b6:	8b 83       	std	Y+3, r24	; 0x03
    	data[TX_PS2_0] = (0xFF00 & sonyPS2_buttonsRaw(&controller1))>>8;
     3b8:	84 e9       	ldi	r24, 0x94	; 148
     3ba:	90 e0       	ldi	r25, 0x00	; 0
     3bc:	0e 94 9a 0a 	call	0x1534	; 0x1534 <sonyPS2_buttonsRaw>
     3c0:	9a 83       	std	Y+2, r25	; 0x02

    	data[TX_PS2_LX] = sonyPS2_joystickRaw(&controller1, PS2_STICK_LEFT_X);
     3c2:	84 e9       	ldi	r24, 0x94	; 148
     3c4:	90 e0       	ldi	r25, 0x00	; 0
     3c6:	64 e0       	ldi	r22, 0x04	; 4
     3c8:	0e 94 37 0b 	call	0x166e	; 0x166e <sonyPS2_joystickRaw>
     3cc:	8e 83       	std	Y+6, r24	; 0x06
    	data[TX_PS2_LY] = sonyPS2_joystickRaw(&controller1, PS2_STICK_LEFT_Y);
     3ce:	84 e9       	ldi	r24, 0x94	; 148
     3d0:	90 e0       	ldi	r25, 0x00	; 0
     3d2:	65 e0       	ldi	r22, 0x05	; 5
     3d4:	0e 94 37 0b 	call	0x166e	; 0x166e <sonyPS2_joystickRaw>
     3d8:	8f 83       	std	Y+7, r24	; 0x07
    	data[TX_PS2_RX] = sonyPS2_joystickRaw(&controller1, PS2_STICK_RIGHT_X);
     3da:	84 e9       	ldi	r24, 0x94	; 148
     3dc:	90 e0       	ldi	r25, 0x00	; 0
     3de:	62 e0       	ldi	r22, 0x02	; 2
     3e0:	0e 94 37 0b 	call	0x166e	; 0x166e <sonyPS2_joystickRaw>
     3e4:	8c 83       	std	Y+4, r24	; 0x04
    	data[TX_PS2_RY] = sonyPS2_joystickRaw(&controller1, PS2_STICK_RIGHT_Y);
     3e6:	84 e9       	ldi	r24, 0x94	; 148
     3e8:	90 e0       	ldi	r25, 0x00	; 0
     3ea:	63 e0       	ldi	r22, 0x03	; 3
     3ec:	0e 94 37 0b 	call	0x166e	; 0x166e <sonyPS2_joystickRaw>
     3f0:	8d 83       	std	Y+5, r24	; 0x05
     3f2:	04 c0       	rjmp	.+8      	; 0x3fc <service_PS2_Controller+0x6e>

    }
    else{
    	// error with PS2 controller. re-initialise.
    	sonyPS2_setAnalogMode(&controller1);
     3f4:	84 e9       	ldi	r24, 0x94	; 148
     3f6:	90 e0       	ldi	r25, 0x00	; 0
     3f8:	0e 94 af 0c 	call	0x195e	; 0x195e <sonyPS2_setAnalogMode>
    }


	return(ps2);
}
     3fc:	80 2f       	mov	r24, r16
     3fe:	df 91       	pop	r29
     400:	cf 91       	pop	r28
     402:	1f 91       	pop	r17
     404:	0f 91       	pop	r16
     406:	08 95       	ret

00000408 <Command_Display>:
	Command_Display(Set_Font);
	rprintfChar(font_id);
} 

void Command_Display(unsigned char command)
{	
     408:	1f 93       	push	r17
     40a:	18 2f       	mov	r17, r24
	rprintfChar(CMD);
     40c:	8e ef       	ldi	r24, 0xFE	; 254
     40e:	0e 94 a2 14 	call	0x2944	; 0x2944 <rprintfChar>
	rprintfChar(command);
     412:	81 2f       	mov	r24, r17
     414:	0e 94 a2 14 	call	0x2944	; 0x2944 <rprintfChar>
}
     418:	1f 91       	pop	r17
     41a:	08 95       	ret

0000041c <Touch_Calibration>:
	rprintfChar(key_up);
}

void Touch_Calibration()
{	
	Command_Display(Touch_Calibrat);
     41c:	8b e8       	ldi	r24, 0x8B	; 139
     41e:	0e 94 04 02 	call	0x408	; 0x408 <Command_Display>

}
     422:	08 95       	ret

00000424 <Delete_All_Regions>:
	Draw_Rect_At(0, x1+2, y1+2, x2-2, y2-2);
}

void Delete_All_Regions()
{
	Command_Display(Delete_Region);
     424:	86 e8       	ldi	r24, 0x86	; 134
     426:	0e 94 04 02 	call	0x408	; 0x408 <Command_Display>
}
     42a:	08 95       	ret

0000042c <Cursor_Coordinate>:
	rprintfChar(col);
	rprintfChar(row);
}

void Cursor_Coordinate(unsigned char horiz, unsigned char vert)
{	
     42c:	0f 93       	push	r16
     42e:	1f 93       	push	r17
     430:	18 2f       	mov	r17, r24
     432:	06 2f       	mov	r16, r22
	Command_Display(Cursor_Cord);
     434:	89 e7       	ldi	r24, 0x79	; 121
     436:	0e 94 04 02 	call	0x408	; 0x408 <Command_Display>
	rprintfChar(horiz);
     43a:	81 2f       	mov	r24, r17
     43c:	0e 94 a2 14 	call	0x2944	; 0x2944 <rprintfChar>
	rprintfChar(vert);
     440:	80 2f       	mov	r24, r16
     442:	0e 94 a2 14 	call	0x2944	; 0x2944 <rprintfChar>
}
     446:	1f 91       	pop	r17
     448:	0f 91       	pop	r16
     44a:	08 95       	ret

0000044c <Cursor_Pos>:
	rprintfChar(CMD);
	rprintfChar(command);
}

void Cursor_Pos(unsigned char col, unsigned char row)
{	
     44c:	0f 93       	push	r16
     44e:	1f 93       	push	r17
     450:	18 2f       	mov	r17, r24
     452:	06 2f       	mov	r16, r22
	Command_Display(Cursor);
     454:	87 e4       	ldi	r24, 0x47	; 71
     456:	0e 94 04 02 	call	0x408	; 0x408 <Command_Display>
	rprintfChar(col);
     45a:	81 2f       	mov	r24, r17
     45c:	0e 94 a2 14 	call	0x2944	; 0x2944 <rprintfChar>
	rprintfChar(row);
     460:	80 2f       	mov	r24, r16
     462:	0e 94 a2 14 	call	0x2944	; 0x2944 <rprintfChar>
}
     466:	1f 91       	pop	r17
     468:	0f 91       	pop	r16
     46a:	08 95       	ret

0000046c <Choose_Font>:
	Command_Display(Drawing_Color);
	rprintfChar(color);
}

void Choose_Font(unsigned char font_id)
{
     46c:	1f 93       	push	r17
     46e:	18 2f       	mov	r17, r24
	Command_Display(Set_Font);
     470:	81 e3       	ldi	r24, 0x31	; 49
     472:	0e 94 04 02 	call	0x408	; 0x408 <Command_Display>
	rprintfChar(font_id);
     476:	81 2f       	mov	r24, r17
     478:	0e 94 a2 14 	call	0x2944	; 0x2944 <rprintfChar>
} 
     47c:	1f 91       	pop	r17
     47e:	08 95       	ret

00000480 <Choose_Color>:
	rprintfChar(x);
	rprintfChar(y);
}

void Choose_Color(unsigned char color)
{
     480:	1f 93       	push	r17
     482:	18 2f       	mov	r17, r24
	Command_Display(Drawing_Color);
     484:	83 e6       	ldi	r24, 0x63	; 99
     486:	0e 94 04 02 	call	0x408	; 0x408 <Command_Display>
	rprintfChar(color);
     48a:	81 2f       	mov	r24, r17
     48c:	0e 94 a2 14 	call	0x2944	; 0x2944 <rprintfChar>
}
     490:	1f 91       	pop	r17
     492:	08 95       	ret

00000494 <InitDisplay>:

void InitDisplay()
{
	Command_Display(Display_On);
     494:	82 e4       	ldi	r24, 0x42	; 66
     496:	0e 94 04 02 	call	0x408	; 0x408 <Command_Display>
	Choose_Font(Small_Filled);
     49a:	81 e0       	ldi	r24, 0x01	; 1
     49c:	0e 94 36 02 	call	0x46c	; 0x46c <Choose_Font>
	Choose_Color(color);
     4a0:	80 91 93 00 	lds	r24, 0x0093
     4a4:	0e 94 40 02 	call	0x480	; 0x480 <Choose_Color>
	Command_Display(Clear_Screen);
     4a8:	88 e5       	ldi	r24, 0x58	; 88
     4aa:	0e 94 04 02 	call	0x408	; 0x408 <Command_Display>

}
     4ae:	08 95       	ret

000004b0 <appInitSoftware>:
/***********************************************************************************/
// This routine is called once to allow you to set up any other variables in your
//program
// You can use 'clock' function here.
// The loopStart parameter has the current clock value in ÏS
TICK_COUNT appInitSoftware(TICK_COUNT loopStart){
     4b0:	ff 92       	push	r15
     4b2:	0f 93       	push	r16
     4b4:	1f 93       	push	r17
static __inline__ void LED_on(LED* led){
	LED_set(led,TRUE);
}

static __inline__ void LED_off(LED* led){
	LED_set(led,FALSE);
     4b6:	8c ec       	ldi	r24, 0xCC	; 204
     4b8:	90 e0       	ldi	r25, 0x00	; 0
     4ba:	60 e0       	ldi	r22, 0x00	; 0
     4bc:	0e 94 ed 12 	call	0x25da	; 0x25da <LED_set>
LED_off(&boardLED4);
LED_off(&boardLED5);
LED_off(&boardLED6);
LED_off(&boardLED7);

	InitDisplay();
     4c0:	8f ec       	ldi	r24, 0xCF	; 207
     4c2:	90 e0       	ldi	r25, 0x00	; 0
     4c4:	60 e0       	ldi	r22, 0x00	; 0
     4c6:	0e 94 ed 12 	call	0x25da	; 0x25da <LED_set>
     4ca:	82 ed       	ldi	r24, 0xD2	; 210
     4cc:	90 e0       	ldi	r25, 0x00	; 0
     4ce:	60 e0       	ldi	r22, 0x00	; 0
     4d0:	0e 94 ed 12 	call	0x25da	; 0x25da <LED_set>
     4d4:	85 ed       	ldi	r24, 0xD5	; 213
     4d6:	90 e0       	ldi	r25, 0x00	; 0
     4d8:	60 e0       	ldi	r22, 0x00	; 0
     4da:	0e 94 ed 12 	call	0x25da	; 0x25da <LED_set>
     4de:	88 ed       	ldi	r24, 0xD8	; 216
     4e0:	90 e0       	ldi	r25, 0x00	; 0
     4e2:	60 e0       	ldi	r22, 0x00	; 0
     4e4:	0e 94 ed 12 	call	0x25da	; 0x25da <LED_set>
     4e8:	8b ed       	ldi	r24, 0xDB	; 219
     4ea:	90 e0       	ldi	r25, 0x00	; 0
     4ec:	60 e0       	ldi	r22, 0x00	; 0
     4ee:	0e 94 ed 12 	call	0x25da	; 0x25da <LED_set>
     4f2:	8e ed       	ldi	r24, 0xDE	; 222
     4f4:	90 e0       	ldi	r25, 0x00	; 0
     4f6:	60 e0       	ldi	r22, 0x00	; 0
     4f8:	0e 94 ed 12 	call	0x25da	; 0x25da <LED_set>
     4fc:	81 ee       	ldi	r24, 0xE1	; 225
     4fe:	90 e0       	ldi	r25, 0x00	; 0
     500:	60 e0       	ldi	r22, 0x00	; 0
     502:	0e 94 ed 12 	call	0x25da	; 0x25da <LED_set>
     506:	0e 94 4a 02 	call	0x494	; 0x494 <InitDisplay>
     50a:	00 e0       	ldi	r16, 0x00	; 0
     50c:	10 e0       	ldi	r17, 0x00	; 0
     50e:	c8 01       	movw	r24, r16
     510:	01 97       	sbiw	r24, 0x01	; 1
     512:	f1 f7       	brne	.-4      	; 0x510 <appInitSoftware+0x60>
     514:	c8 01       	movw	r24, r16
     516:	01 97       	sbiw	r24, 0x01	; 1
     518:	f1 f7       	brne	.-4      	; 0x516 <appInitSoftware+0x66>
     51a:	c8 01       	movw	r24, r16
     51c:	01 97       	sbiw	r24, 0x01	; 1
     51e:	f1 f7       	brne	.-4      	; 0x51c <appInitSoftware+0x6c>
     520:	c8 01       	movw	r24, r16
     522:	01 97       	sbiw	r24, 0x01	; 1
     524:	f1 f7       	brne	.-4      	; 0x522 <appInitSoftware+0x72>
     526:	c8 01       	movw	r24, r16
     528:	01 97       	sbiw	r24, 0x01	; 1
     52a:	f1 f7       	brne	.-4      	; 0x528 <appInitSoftware+0x78>
	Wait(5);
	Command_Display(Go_Home);
     52c:	88 e4       	ldi	r24, 0x48	; 72
     52e:	0e 94 04 02 	call	0x408	; 0x408 <Command_Display>
	//Draw_Pad();
	//Wait(5);
	//Draw_Touch_Region();
	//Wait(5);
	Cursor_Coordinate(5,20);
     532:	85 e0       	ldi	r24, 0x05	; 5
     534:	64 e1       	ldi	r22, 0x14	; 20
     536:	0e 94 16 02 	call	0x42c	; 0x42c <Cursor_Coordinate>
	rprintf("Raw BTN:");
     53a:	00 d0       	rcall	.+0      	; 0x53c <appInitSoftware+0x8c>
     53c:	0f 92       	push	r0
     53e:	ff 24       	eor	r15, r15
     540:	f3 94       	inc	r15
     542:	ed b7       	in	r30, 0x3d	; 61
     544:	fe b7       	in	r31, 0x3e	; 62
     546:	f1 82       	std	Z+1, r15	; 0x01
     548:	85 ef       	ldi	r24, 0xF5	; 245
     54a:	91 e0       	ldi	r25, 0x01	; 1
     54c:	93 83       	std	Z+3, r25	; 0x03
     54e:	82 83       	std	Z+2, r24	; 0x02
     550:	0e 94 ab 15 	call	0x2b56	; 0x2b56 <rprintf1RamRom>
	Cursor_Coordinate(5,30);
     554:	0f 90       	pop	r0
     556:	0f 90       	pop	r0
     558:	0f 90       	pop	r0
     55a:	85 e0       	ldi	r24, 0x05	; 5
     55c:	6e e1       	ldi	r22, 0x1E	; 30
     55e:	0e 94 16 02 	call	0x42c	; 0x42c <Cursor_Coordinate>
	rprintf("D Pad Y:");
     562:	00 d0       	rcall	.+0      	; 0x564 <appInitSoftware+0xb4>
     564:	0f 92       	push	r0
     566:	ed b7       	in	r30, 0x3d	; 61
     568:	fe b7       	in	r31, 0x3e	; 62
     56a:	f1 82       	std	Z+1, r15	; 0x01
     56c:	8c ee       	ldi	r24, 0xEC	; 236
     56e:	91 e0       	ldi	r25, 0x01	; 1
     570:	93 83       	std	Z+3, r25	; 0x03
     572:	82 83       	std	Z+2, r24	; 0x02
     574:	0e 94 ab 15 	call	0x2b56	; 0x2b56 <rprintf1RamRom>
	Cursor_Coordinate(95,30);
     578:	0f 90       	pop	r0
     57a:	0f 90       	pop	r0
     57c:	0f 90       	pop	r0
     57e:	8f e5       	ldi	r24, 0x5F	; 95
     580:	6e e1       	ldi	r22, 0x1E	; 30
     582:	0e 94 16 02 	call	0x42c	; 0x42c <Cursor_Coordinate>
	rprintf("Shape Y:");
     586:	00 d0       	rcall	.+0      	; 0x588 <appInitSoftware+0xd8>
     588:	0f 92       	push	r0
     58a:	ed b7       	in	r30, 0x3d	; 61
     58c:	fe b7       	in	r31, 0x3e	; 62
     58e:	f1 82       	std	Z+1, r15	; 0x01
     590:	83 ee       	ldi	r24, 0xE3	; 227
     592:	91 e0       	ldi	r25, 0x01	; 1
     594:	93 83       	std	Z+3, r25	; 0x03
     596:	82 83       	std	Z+2, r24	; 0x02
     598:	0e 94 ab 15 	call	0x2b56	; 0x2b56 <rprintf1RamRom>
     59c:	c8 01       	movw	r24, r16
     59e:	01 97       	sbiw	r24, 0x01	; 1
     5a0:	f1 f7       	brne	.-4      	; 0x59e <appInitSoftware+0xee>
	Wait(1);
	Cursor_Coordinate(5,40);
     5a2:	0f 90       	pop	r0
     5a4:	0f 90       	pop	r0
     5a6:	0f 90       	pop	r0
     5a8:	85 e0       	ldi	r24, 0x05	; 5
     5aa:	68 e2       	ldi	r22, 0x28	; 40
     5ac:	0e 94 16 02 	call	0x42c	; 0x42c <Cursor_Coordinate>
	rprintf("D Pad X:");
     5b0:	00 d0       	rcall	.+0      	; 0x5b2 <appInitSoftware+0x102>
     5b2:	0f 92       	push	r0
     5b4:	ed b7       	in	r30, 0x3d	; 61
     5b6:	fe b7       	in	r31, 0x3e	; 62
     5b8:	f1 82       	std	Z+1, r15	; 0x01
     5ba:	8a ed       	ldi	r24, 0xDA	; 218
     5bc:	91 e0       	ldi	r25, 0x01	; 1
     5be:	93 83       	std	Z+3, r25	; 0x03
     5c0:	82 83       	std	Z+2, r24	; 0x02
     5c2:	0e 94 ab 15 	call	0x2b56	; 0x2b56 <rprintf1RamRom>
	Cursor_Coordinate(95,40);
     5c6:	0f 90       	pop	r0
     5c8:	0f 90       	pop	r0
     5ca:	0f 90       	pop	r0
     5cc:	8f e5       	ldi	r24, 0x5F	; 95
     5ce:	68 e2       	ldi	r22, 0x28	; 40
     5d0:	0e 94 16 02 	call	0x42c	; 0x42c <Cursor_Coordinate>
	rprintf("Shape X:");
     5d4:	00 d0       	rcall	.+0      	; 0x5d6 <appInitSoftware+0x126>
     5d6:	0f 92       	push	r0
     5d8:	ed b7       	in	r30, 0x3d	; 61
     5da:	fe b7       	in	r31, 0x3e	; 62
     5dc:	f1 82       	std	Z+1, r15	; 0x01
     5de:	81 ed       	ldi	r24, 0xD1	; 209
     5e0:	91 e0       	ldi	r25, 0x01	; 1
     5e2:	93 83       	std	Z+3, r25	; 0x03
     5e4:	82 83       	std	Z+2, r24	; 0x02
     5e6:	0e 94 ab 15 	call	0x2b56	; 0x2b56 <rprintf1RamRom>
     5ea:	c8 01       	movw	r24, r16
     5ec:	01 97       	sbiw	r24, 0x01	; 1
     5ee:	f1 f7       	brne	.-4      	; 0x5ec <appInitSoftware+0x13c>
	Wait(1);
	Cursor_Coordinate(5,50);
     5f0:	0f 90       	pop	r0
     5f2:	0f 90       	pop	r0
     5f4:	0f 90       	pop	r0
     5f6:	85 e0       	ldi	r24, 0x05	; 5
     5f8:	62 e3       	ldi	r22, 0x32	; 50
     5fa:	0e 94 16 02 	call	0x42c	; 0x42c <Cursor_Coordinate>
	rprintf("Left  Y:");
     5fe:	00 d0       	rcall	.+0      	; 0x600 <appInitSoftware+0x150>
     600:	0f 92       	push	r0
     602:	ed b7       	in	r30, 0x3d	; 61
     604:	fe b7       	in	r31, 0x3e	; 62
     606:	f1 82       	std	Z+1, r15	; 0x01
     608:	88 ec       	ldi	r24, 0xC8	; 200
     60a:	91 e0       	ldi	r25, 0x01	; 1
     60c:	93 83       	std	Z+3, r25	; 0x03
     60e:	82 83       	std	Z+2, r24	; 0x02
     610:	0e 94 ab 15 	call	0x2b56	; 0x2b56 <rprintf1RamRom>
	Cursor_Coordinate(95,50);
     614:	0f 90       	pop	r0
     616:	0f 90       	pop	r0
     618:	0f 90       	pop	r0
     61a:	8f e5       	ldi	r24, 0x5F	; 95
     61c:	62 e3       	ldi	r22, 0x32	; 50
     61e:	0e 94 16 02 	call	0x42c	; 0x42c <Cursor_Coordinate>
	rprintf("BTN X P:");
     622:	00 d0       	rcall	.+0      	; 0x624 <appInitSoftware+0x174>
     624:	0f 92       	push	r0
     626:	ed b7       	in	r30, 0x3d	; 61
     628:	fe b7       	in	r31, 0x3e	; 62
     62a:	f1 82       	std	Z+1, r15	; 0x01
     62c:	8f eb       	ldi	r24, 0xBF	; 191
     62e:	91 e0       	ldi	r25, 0x01	; 1
     630:	93 83       	std	Z+3, r25	; 0x03
     632:	82 83       	std	Z+2, r24	; 0x02
     634:	0e 94 ab 15 	call	0x2b56	; 0x2b56 <rprintf1RamRom>
	Cursor_Coordinate(5,60);
     638:	0f 90       	pop	r0
     63a:	0f 90       	pop	r0
     63c:	0f 90       	pop	r0
     63e:	85 e0       	ldi	r24, 0x05	; 5
     640:	6c e3       	ldi	r22, 0x3C	; 60
     642:	0e 94 16 02 	call	0x42c	; 0x42c <Cursor_Coordinate>
	rprintf("Left  X:");
     646:	00 d0       	rcall	.+0      	; 0x648 <appInitSoftware+0x198>
     648:	0f 92       	push	r0
     64a:	ed b7       	in	r30, 0x3d	; 61
     64c:	fe b7       	in	r31, 0x3e	; 62
     64e:	f1 82       	std	Z+1, r15	; 0x01
     650:	86 eb       	ldi	r24, 0xB6	; 182
     652:	91 e0       	ldi	r25, 0x01	; 1
     654:	93 83       	std	Z+3, r25	; 0x03
     656:	82 83       	std	Z+2, r24	; 0x02
     658:	0e 94 ab 15 	call	0x2b56	; 0x2b56 <rprintf1RamRom>
	Cursor_Coordinate(5,70);
     65c:	0f 90       	pop	r0
     65e:	0f 90       	pop	r0
     660:	0f 90       	pop	r0
     662:	85 e0       	ldi	r24, 0x05	; 5
     664:	66 e4       	ldi	r22, 0x46	; 70
     666:	0e 94 16 02 	call	0x42c	; 0x42c <Cursor_Coordinate>
	rprintf("Right Y:");
     66a:	00 d0       	rcall	.+0      	; 0x66c <appInitSoftware+0x1bc>
     66c:	0f 92       	push	r0
     66e:	ed b7       	in	r30, 0x3d	; 61
     670:	fe b7       	in	r31, 0x3e	; 62
     672:	f1 82       	std	Z+1, r15	; 0x01
     674:	8d ea       	ldi	r24, 0xAD	; 173
     676:	91 e0       	ldi	r25, 0x01	; 1
     678:	93 83       	std	Z+3, r25	; 0x03
     67a:	82 83       	std	Z+2, r24	; 0x02
     67c:	0e 94 ab 15 	call	0x2b56	; 0x2b56 <rprintf1RamRom>
	Cursor_Coordinate(5,80);
     680:	0f 90       	pop	r0
     682:	0f 90       	pop	r0
     684:	0f 90       	pop	r0
     686:	85 e0       	ldi	r24, 0x05	; 5
     688:	60 e5       	ldi	r22, 0x50	; 80
     68a:	0e 94 16 02 	call	0x42c	; 0x42c <Cursor_Coordinate>
	rprintf("Right X:");
     68e:	00 d0       	rcall	.+0      	; 0x690 <appInitSoftware+0x1e0>
     690:	0f 92       	push	r0
     692:	ed b7       	in	r30, 0x3d	; 61
     694:	fe b7       	in	r31, 0x3e	; 62
     696:	f1 82       	std	Z+1, r15	; 0x01
     698:	84 ea       	ldi	r24, 0xA4	; 164
     69a:	91 e0       	ldi	r25, 0x01	; 1
     69c:	93 83       	std	Z+3, r25	; 0x03
     69e:	82 83       	std	Z+2, r24	; 0x02
     6a0:	0e 94 ab 15 	call	0x2b56	; 0x2b56 <rprintf1RamRom>
     6a4:	c8 01       	movw	r24, r16
     6a6:	01 97       	sbiw	r24, 0x01	; 1
     6a8:	f1 f7       	brne	.-4      	; 0x6a6 <appInitSoftware+0x1f6>
	Wait(1);
	Cursor_Coordinate(5,90);
     6aa:	0f 90       	pop	r0
     6ac:	0f 90       	pop	r0
     6ae:	0f 90       	pop	r0
     6b0:	85 e0       	ldi	r24, 0x05	; 5
     6b2:	6a e5       	ldi	r22, 0x5A	; 90
     6b4:	0e 94 16 02 	call	0x42c	; 0x42c <Cursor_Coordinate>
	rprintf("Data  1:");
     6b8:	00 d0       	rcall	.+0      	; 0x6ba <appInitSoftware+0x20a>
     6ba:	0f 92       	push	r0
     6bc:	ed b7       	in	r30, 0x3d	; 61
     6be:	fe b7       	in	r31, 0x3e	; 62
     6c0:	f1 82       	std	Z+1, r15	; 0x01
     6c2:	8b e9       	ldi	r24, 0x9B	; 155
     6c4:	91 e0       	ldi	r25, 0x01	; 1
     6c6:	93 83       	std	Z+3, r25	; 0x03
     6c8:	82 83       	std	Z+2, r24	; 0x02
     6ca:	0e 94 ab 15 	call	0x2b56	; 0x2b56 <rprintf1RamRom>
	Cursor_Coordinate(5,100);
     6ce:	0f 90       	pop	r0
     6d0:	0f 90       	pop	r0
     6d2:	0f 90       	pop	r0
     6d4:	85 e0       	ldi	r24, 0x05	; 5
     6d6:	64 e6       	ldi	r22, 0x64	; 100
     6d8:	0e 94 16 02 	call	0x42c	; 0x42c <Cursor_Coordinate>
	rprintf("Data  0:");
     6dc:	00 d0       	rcall	.+0      	; 0x6de <appInitSoftware+0x22e>
     6de:	0f 92       	push	r0
     6e0:	ed b7       	in	r30, 0x3d	; 61
     6e2:	fe b7       	in	r31, 0x3e	; 62
     6e4:	f1 82       	std	Z+1, r15	; 0x01
     6e6:	82 e9       	ldi	r24, 0x92	; 146
     6e8:	91 e0       	ldi	r25, 0x01	; 1
     6ea:	93 83       	std	Z+3, r25	; 0x03
     6ec:	82 83       	std	Z+2, r24	; 0x02
     6ee:	0e 94 ab 15 	call	0x2b56	; 0x2b56 <rprintf1RamRom>
	sonyPS2_setAnalogMode(&controller1);
     6f2:	0f 90       	pop	r0
     6f4:	0f 90       	pop	r0
     6f6:	0f 90       	pop	r0
     6f8:	04 e9       	ldi	r16, 0x94	; 148
     6fa:	10 e0       	ldi	r17, 0x00	; 0
     6fc:	c8 01       	movw	r24, r16
     6fe:	0e 94 af 0c 	call	0x195e	; 0x195e <sonyPS2_setAnalogMode>
	sonyPS2_calibrate(&controller1, 20);
     702:	c8 01       	movw	r24, r16
     704:	64 e1       	ldi	r22, 0x14	; 20
     706:	0e 94 04 0d 	call	0x1a08	; 0x1a08 <sonyPS2_calibrate>

	//act_setSpeed(&rudder,DRIVE_SPEED_MAX);

return 0; // dont pause after
}
     70a:	60 e0       	ldi	r22, 0x00	; 0
     70c:	70 e0       	ldi	r23, 0x00	; 0
     70e:	80 e0       	ldi	r24, 0x00	; 0
     710:	90 e0       	ldi	r25, 0x00	; 0
     712:	1f 91       	pop	r17
     714:	0f 91       	pop	r16
     716:	ff 90       	pop	r15
     718:	08 95       	ret

0000071a <Draw_Pixel_At>:
	rprintfChar(x2);
	rprintfChar(y2);
}

void Draw_Pixel_At(unsigned char x, unsigned char y)
{	
     71a:	0f 93       	push	r16
     71c:	1f 93       	push	r17
     71e:	18 2f       	mov	r17, r24
     720:	06 2f       	mov	r16, r22
	Command_Display(Draw_Pixel);
     722:	80 e7       	ldi	r24, 0x70	; 112
     724:	0e 94 04 02 	call	0x408	; 0x408 <Command_Display>
	rprintfChar(x);
     728:	81 2f       	mov	r24, r17
     72a:	0e 94 a2 14 	call	0x2944	; 0x2944 <rprintfChar>
	rprintfChar(y);
     72e:	80 2f       	mov	r24, r16
     730:	0e 94 a2 14 	call	0x2944	; 0x2944 <rprintfChar>
}
     734:	1f 91       	pop	r17
     736:	0f 91       	pop	r16
     738:	08 95       	ret

0000073a <Draw_Line_At>:
	rprintfChar(y);

}

void Draw_Line_At(unsigned char x1, unsigned char y1, unsigned char x2, unsigned char y2)
{	
     73a:	ef 92       	push	r14
     73c:	ff 92       	push	r15
     73e:	0f 93       	push	r16
     740:	1f 93       	push	r17
     742:	18 2f       	mov	r17, r24
     744:	06 2f       	mov	r16, r22
     746:	f4 2e       	mov	r15, r20
     748:	e2 2e       	mov	r14, r18
	Command_Display(Drawing_Line);
     74a:	8c e6       	ldi	r24, 0x6C	; 108
     74c:	0e 94 04 02 	call	0x408	; 0x408 <Command_Display>
	rprintfChar(x1);
     750:	81 2f       	mov	r24, r17
     752:	0e 94 a2 14 	call	0x2944	; 0x2944 <rprintfChar>
	rprintfChar(y1);
     756:	80 2f       	mov	r24, r16
     758:	0e 94 a2 14 	call	0x2944	; 0x2944 <rprintfChar>
	rprintfChar(x2);
     75c:	8f 2d       	mov	r24, r15
     75e:	0e 94 a2 14 	call	0x2944	; 0x2944 <rprintfChar>
	rprintfChar(y2);
     762:	8e 2d       	mov	r24, r14
     764:	0e 94 a2 14 	call	0x2944	; 0x2944 <rprintfChar>
}
     768:	1f 91       	pop	r17
     76a:	0f 91       	pop	r16
     76c:	ff 90       	pop	r15
     76e:	ef 90       	pop	r14
     770:	08 95       	ret

00000772 <Continue_Line_To>:
	rprintfChar(x2);
	rprintfChar(y2);
}

void Continue_Line_To(unsigned char x, unsigned char y)
{	
     772:	0f 93       	push	r16
     774:	1f 93       	push	r17
     776:	18 2f       	mov	r17, r24
     778:	06 2f       	mov	r16, r22
	Command_Display(Continue_Line);
     77a:	85 e6       	ldi	r24, 0x65	; 101
     77c:	0e 94 04 02 	call	0x408	; 0x408 <Command_Display>
	rprintfChar(x);
     780:	81 2f       	mov	r24, r17
     782:	0e 94 a2 14 	call	0x2944	; 0x2944 <rprintfChar>
	rprintfChar(y);
     786:	80 2f       	mov	r24, r16
     788:	0e 94 a2 14 	call	0x2944	; 0x2944 <rprintfChar>

}
     78c:	1f 91       	pop	r17
     78e:	0f 91       	pop	r16
     790:	08 95       	ret

00000792 <Draw_Rect_At>:
	rprintfChar(x2);
	rprintfChar(y2);
}

void Draw_Rect_At(unsigned char color, unsigned char x1, unsigned char y1, unsigned char x2, unsigned char y2)
{	
     792:	df 92       	push	r13
     794:	ef 92       	push	r14
     796:	ff 92       	push	r15
     798:	0f 93       	push	r16
     79a:	1f 93       	push	r17
     79c:	18 2f       	mov	r17, r24
     79e:	f6 2e       	mov	r15, r22
     7a0:	e4 2e       	mov	r14, r20
     7a2:	d2 2e       	mov	r13, r18
	Command_Display(Draw_Rectangle);
     7a4:	82 e7       	ldi	r24, 0x72	; 114
     7a6:	0e 94 04 02 	call	0x408	; 0x408 <Command_Display>
	rprintfChar(color);
     7aa:	81 2f       	mov	r24, r17
     7ac:	0e 94 a2 14 	call	0x2944	; 0x2944 <rprintfChar>
	rprintfChar(x1);
     7b0:	8f 2d       	mov	r24, r15
     7b2:	0e 94 a2 14 	call	0x2944	; 0x2944 <rprintfChar>
	rprintfChar(y1);
     7b6:	8e 2d       	mov	r24, r14
     7b8:	0e 94 a2 14 	call	0x2944	; 0x2944 <rprintfChar>
	rprintfChar(x2);
     7bc:	8d 2d       	mov	r24, r13
     7be:	0e 94 a2 14 	call	0x2944	; 0x2944 <rprintfChar>
	rprintfChar(y2);
     7c2:	80 2f       	mov	r24, r16
     7c4:	0e 94 a2 14 	call	0x2944	; 0x2944 <rprintfChar>
}
     7c8:	1f 91       	pop	r17
     7ca:	0f 91       	pop	r16
     7cc:	ff 90       	pop	r15
     7ce:	ef 90       	pop	r14
     7d0:	df 90       	pop	r13
     7d2:	08 95       	ret

000007d4 <Draw_Pad>:
	Command_Display(Clear_Screen);

}

void Draw_Pad()
{
     7d4:	ef 92       	push	r14
     7d6:	ff 92       	push	r15
     7d8:	0f 93       	push	r16
     7da:	1f 93       	push	r17

	Cursor_Coordinate(70,21);
     7dc:	86 e4       	ldi	r24, 0x46	; 70
     7de:	65 e1       	ldi	r22, 0x15	; 21
     7e0:	0e 94 16 02 	call	0x42c	; 0x42c <Cursor_Coordinate>
	rprintf("EL:     CHG:");
     7e4:	00 d0       	rcall	.+0      	; 0x7e6 <Draw_Pad+0x12>
     7e6:	0f 92       	push	r0
     7e8:	11 e0       	ldi	r17, 0x01	; 1
     7ea:	ed b7       	in	r30, 0x3d	; 61
     7ec:	fe b7       	in	r31, 0x3e	; 62
     7ee:	11 83       	std	Z+1, r17	; 0x01
     7f0:	83 e2       	ldi	r24, 0x23	; 35
     7f2:	92 e0       	ldi	r25, 0x02	; 2
     7f4:	93 83       	std	Z+3, r25	; 0x03
     7f6:	82 83       	std	Z+2, r24	; 0x02
     7f8:	0e 94 ab 15 	call	0x2b56	; 0x2b56 <rprintf1RamRom>

	Cursor_Coordinate(70,11);
     7fc:	0f 90       	pop	r0
     7fe:	0f 90       	pop	r0
     800:	0f 90       	pop	r0
     802:	86 e4       	ldi	r24, 0x46	; 70
     804:	6b e0       	ldi	r22, 0x0B	; 11
     806:	0e 94 16 02 	call	0x42c	; 0x42c <Cursor_Coordinate>
	rprintf("AZ:      RD:");
     80a:	00 d0       	rcall	.+0      	; 0x80c <Draw_Pad+0x38>
     80c:	0f 92       	push	r0
     80e:	ed b7       	in	r30, 0x3d	; 61
     810:	fe b7       	in	r31, 0x3e	; 62
     812:	11 83       	std	Z+1, r17	; 0x01
     814:	86 e1       	ldi	r24, 0x16	; 22
     816:	92 e0       	ldi	r25, 0x02	; 2
     818:	93 83       	std	Z+3, r25	; 0x03
     81a:	82 83       	std	Z+2, r24	; 0x02
     81c:	0e 94 ab 15 	call	0x2b56	; 0x2b56 <rprintf1RamRom>
     820:	ee 24       	eor	r14, r14
     822:	ff 24       	eor	r15, r15
     824:	c7 01       	movw	r24, r14
     826:	01 97       	sbiw	r24, 0x01	; 1
     828:	f1 f7       	brne	.-4      	; 0x826 <Draw_Pad+0x52>

	Wait(1);
	Draw_Rect_At(255, 65, 5, 174, 30);
     82a:	0f 90       	pop	r0
     82c:	0f 90       	pop	r0
     82e:	0f 90       	pop	r0
     830:	8f ef       	ldi	r24, 0xFF	; 255
     832:	61 e4       	ldi	r22, 0x41	; 65
     834:	45 e0       	ldi	r20, 0x05	; 5
     836:	2e ea       	ldi	r18, 0xAE	; 174
     838:	0e e1       	ldi	r16, 0x1E	; 30
     83a:	0e 94 c9 03 	call	0x792	; 0x792 <Draw_Rect_At>

	Draw_Rect_At(255, 65, 35, 90, 60);  	//1
     83e:	8f ef       	ldi	r24, 0xFF	; 255
     840:	61 e4       	ldi	r22, 0x41	; 65
     842:	43 e2       	ldi	r20, 0x23	; 35
     844:	2a e5       	ldi	r18, 0x5A	; 90
     846:	0c e3       	ldi	r16, 0x3C	; 60
     848:	0e 94 c9 03 	call	0x792	; 0x792 <Draw_Rect_At>
	Draw_Rect_At(255, 65, 63, 90, 88);		//4
     84c:	8f ef       	ldi	r24, 0xFF	; 255
     84e:	61 e4       	ldi	r22, 0x41	; 65
     850:	4f e3       	ldi	r20, 0x3F	; 63
     852:	2a e5       	ldi	r18, 0x5A	; 90
     854:	08 e5       	ldi	r16, 0x58	; 88
     856:	0e 94 c9 03 	call	0x792	; 0x792 <Draw_Rect_At>
	Draw_Rect_At(255, 65, 91, 90, 116);		//7
     85a:	8f ef       	ldi	r24, 0xFF	; 255
     85c:	61 e4       	ldi	r22, 0x41	; 65
     85e:	4b e5       	ldi	r20, 0x5B	; 91
     860:	2a e5       	ldi	r18, 0x5A	; 90
     862:	04 e7       	ldi	r16, 0x74	; 116
     864:	0e 94 c9 03 	call	0x792	; 0x792 <Draw_Rect_At>

	Draw_Rect_At(255, 93, 35, 118, 60);		//2
     868:	8f ef       	ldi	r24, 0xFF	; 255
     86a:	6d e5       	ldi	r22, 0x5D	; 93
     86c:	43 e2       	ldi	r20, 0x23	; 35
     86e:	26 e7       	ldi	r18, 0x76	; 118
     870:	0c e3       	ldi	r16, 0x3C	; 60
     872:	0e 94 c9 03 	call	0x792	; 0x792 <Draw_Rect_At>
	Draw_Rect_At(255, 93, 63, 118, 88);		//5
     876:	8f ef       	ldi	r24, 0xFF	; 255
     878:	6d e5       	ldi	r22, 0x5D	; 93
     87a:	4f e3       	ldi	r20, 0x3F	; 63
     87c:	26 e7       	ldi	r18, 0x76	; 118
     87e:	08 e5       	ldi	r16, 0x58	; 88
     880:	0e 94 c9 03 	call	0x792	; 0x792 <Draw_Rect_At>
	Draw_Rect_At(255, 93, 91, 118, 116);	//8	
     884:	8f ef       	ldi	r24, 0xFF	; 255
     886:	6d e5       	ldi	r22, 0x5D	; 93
     888:	4b e5       	ldi	r20, 0x5B	; 91
     88a:	26 e7       	ldi	r18, 0x76	; 118
     88c:	04 e7       	ldi	r16, 0x74	; 116
     88e:	0e 94 c9 03 	call	0x792	; 0x792 <Draw_Rect_At>

	Draw_Rect_At(255, 121, 35, 146, 60);	//3
     892:	8f ef       	ldi	r24, 0xFF	; 255
     894:	69 e7       	ldi	r22, 0x79	; 121
     896:	43 e2       	ldi	r20, 0x23	; 35
     898:	22 e9       	ldi	r18, 0x92	; 146
     89a:	0c e3       	ldi	r16, 0x3C	; 60
     89c:	0e 94 c9 03 	call	0x792	; 0x792 <Draw_Rect_At>
	Draw_Rect_At(255, 121, 63, 146, 88);	//6
     8a0:	8f ef       	ldi	r24, 0xFF	; 255
     8a2:	69 e7       	ldi	r22, 0x79	; 121
     8a4:	4f e3       	ldi	r20, 0x3F	; 63
     8a6:	22 e9       	ldi	r18, 0x92	; 146
     8a8:	08 e5       	ldi	r16, 0x58	; 88
     8aa:	0e 94 c9 03 	call	0x792	; 0x792 <Draw_Rect_At>
	Draw_Rect_At(255, 121, 91, 146, 116);	//9
     8ae:	8f ef       	ldi	r24, 0xFF	; 255
     8b0:	69 e7       	ldi	r22, 0x79	; 121
     8b2:	4b e5       	ldi	r20, 0x5B	; 91
     8b4:	22 e9       	ldi	r18, 0x92	; 146
     8b6:	04 e7       	ldi	r16, 0x74	; 116
     8b8:	0e 94 c9 03 	call	0x792	; 0x792 <Draw_Rect_At>

	Draw_Rect_At(255, 149, 35, 174, 60);	//C
     8bc:	8f ef       	ldi	r24, 0xFF	; 255
     8be:	65 e9       	ldi	r22, 0x95	; 149
     8c0:	43 e2       	ldi	r20, 0x23	; 35
     8c2:	2e ea       	ldi	r18, 0xAE	; 174
     8c4:	0c e3       	ldi	r16, 0x3C	; 60
     8c6:	0e 94 c9 03 	call	0x792	; 0x792 <Draw_Rect_At>
	Draw_Rect_At(255, 149, 63, 174, 88);	//<
     8ca:	8f ef       	ldi	r24, 0xFF	; 255
     8cc:	65 e9       	ldi	r22, 0x95	; 149
     8ce:	4f e3       	ldi	r20, 0x3F	; 63
     8d0:	2e ea       	ldi	r18, 0xAE	; 174
     8d2:	08 e5       	ldi	r16, 0x58	; 88
     8d4:	0e 94 c9 03 	call	0x792	; 0x792 <Draw_Rect_At>
	Draw_Rect_At(255, 149, 91, 174, 116);	//0
     8d8:	8f ef       	ldi	r24, 0xFF	; 255
     8da:	65 e9       	ldi	r22, 0x95	; 149
     8dc:	4b e5       	ldi	r20, 0x5B	; 91
     8de:	2e ea       	ldi	r18, 0xAE	; 174
     8e0:	04 e7       	ldi	r16, 0x74	; 116
     8e2:	0e 94 c9 03 	call	0x792	; 0x792 <Draw_Rect_At>
     8e6:	c7 01       	movw	r24, r14
     8e8:	01 97       	sbiw	r24, 0x01	; 1
     8ea:	f1 f7       	brne	.-4      	; 0x8e8 <__stack+0x89>
	
	Wait(1);

	Cursor_Coordinate(75,45);
     8ec:	8b e4       	ldi	r24, 0x4B	; 75
     8ee:	6d e2       	ldi	r22, 0x2D	; 45
     8f0:	0e 94 16 02 	call	0x42c	; 0x42c <Cursor_Coordinate>
	rprintf("1");
     8f4:	00 d0       	rcall	.+0      	; 0x8f6 <__stack+0x97>
     8f6:	0f 92       	push	r0
     8f8:	ed b7       	in	r30, 0x3d	; 61
     8fa:	fe b7       	in	r31, 0x3e	; 62
     8fc:	11 83       	std	Z+1, r17	; 0x01
     8fe:	84 e1       	ldi	r24, 0x14	; 20
     900:	92 e0       	ldi	r25, 0x02	; 2
     902:	93 83       	std	Z+3, r25	; 0x03
     904:	82 83       	std	Z+2, r24	; 0x02
     906:	0e 94 ab 15 	call	0x2b56	; 0x2b56 <rprintf1RamRom>
	Cursor_Coordinate(75,73);
     90a:	0f 90       	pop	r0
     90c:	0f 90       	pop	r0
     90e:	0f 90       	pop	r0
     910:	8b e4       	ldi	r24, 0x4B	; 75
     912:	69 e4       	ldi	r22, 0x49	; 73
     914:	0e 94 16 02 	call	0x42c	; 0x42c <Cursor_Coordinate>
	rprintf("4");
     918:	00 d0       	rcall	.+0      	; 0x91a <__stack+0xbb>
     91a:	0f 92       	push	r0
     91c:	ed b7       	in	r30, 0x3d	; 61
     91e:	fe b7       	in	r31, 0x3e	; 62
     920:	11 83       	std	Z+1, r17	; 0x01
     922:	82 e1       	ldi	r24, 0x12	; 18
     924:	92 e0       	ldi	r25, 0x02	; 2
     926:	93 83       	std	Z+3, r25	; 0x03
     928:	82 83       	std	Z+2, r24	; 0x02
     92a:	0e 94 ab 15 	call	0x2b56	; 0x2b56 <rprintf1RamRom>
	Cursor_Coordinate(75,101);
     92e:	0f 90       	pop	r0
     930:	0f 90       	pop	r0
     932:	0f 90       	pop	r0
     934:	8b e4       	ldi	r24, 0x4B	; 75
     936:	65 e6       	ldi	r22, 0x65	; 101
     938:	0e 94 16 02 	call	0x42c	; 0x42c <Cursor_Coordinate>
	rprintf("7");
     93c:	00 d0       	rcall	.+0      	; 0x93e <__stack+0xdf>
     93e:	0f 92       	push	r0
     940:	ed b7       	in	r30, 0x3d	; 61
     942:	fe b7       	in	r31, 0x3e	; 62
     944:	11 83       	std	Z+1, r17	; 0x01
     946:	80 e1       	ldi	r24, 0x10	; 16
     948:	92 e0       	ldi	r25, 0x02	; 2
     94a:	93 83       	std	Z+3, r25	; 0x03
     94c:	82 83       	std	Z+2, r24	; 0x02
     94e:	0e 94 ab 15 	call	0x2b56	; 0x2b56 <rprintf1RamRom>

	Cursor_Coordinate(103,45);
     952:	0f 90       	pop	r0
     954:	0f 90       	pop	r0
     956:	0f 90       	pop	r0
     958:	87 e6       	ldi	r24, 0x67	; 103
     95a:	6d e2       	ldi	r22, 0x2D	; 45
     95c:	0e 94 16 02 	call	0x42c	; 0x42c <Cursor_Coordinate>
	rprintf("2");
     960:	00 d0       	rcall	.+0      	; 0x962 <__stack+0x103>
     962:	0f 92       	push	r0
     964:	ed b7       	in	r30, 0x3d	; 61
     966:	fe b7       	in	r31, 0x3e	; 62
     968:	11 83       	std	Z+1, r17	; 0x01
     96a:	8e e0       	ldi	r24, 0x0E	; 14
     96c:	92 e0       	ldi	r25, 0x02	; 2
     96e:	93 83       	std	Z+3, r25	; 0x03
     970:	82 83       	std	Z+2, r24	; 0x02
     972:	0e 94 ab 15 	call	0x2b56	; 0x2b56 <rprintf1RamRom>
	Cursor_Coordinate(103,73);
     976:	0f 90       	pop	r0
     978:	0f 90       	pop	r0
     97a:	0f 90       	pop	r0
     97c:	87 e6       	ldi	r24, 0x67	; 103
     97e:	69 e4       	ldi	r22, 0x49	; 73
     980:	0e 94 16 02 	call	0x42c	; 0x42c <Cursor_Coordinate>
	rprintf("5");
     984:	00 d0       	rcall	.+0      	; 0x986 <__stack+0x127>
     986:	0f 92       	push	r0
     988:	ed b7       	in	r30, 0x3d	; 61
     98a:	fe b7       	in	r31, 0x3e	; 62
     98c:	11 83       	std	Z+1, r17	; 0x01
     98e:	8c e0       	ldi	r24, 0x0C	; 12
     990:	92 e0       	ldi	r25, 0x02	; 2
     992:	93 83       	std	Z+3, r25	; 0x03
     994:	82 83       	std	Z+2, r24	; 0x02
     996:	0e 94 ab 15 	call	0x2b56	; 0x2b56 <rprintf1RamRom>
	Cursor_Coordinate(103,101);
     99a:	0f 90       	pop	r0
     99c:	0f 90       	pop	r0
     99e:	0f 90       	pop	r0
     9a0:	87 e6       	ldi	r24, 0x67	; 103
     9a2:	65 e6       	ldi	r22, 0x65	; 101
     9a4:	0e 94 16 02 	call	0x42c	; 0x42c <Cursor_Coordinate>
	rprintf("8");
     9a8:	00 d0       	rcall	.+0      	; 0x9aa <__stack+0x14b>
     9aa:	0f 92       	push	r0
     9ac:	ed b7       	in	r30, 0x3d	; 61
     9ae:	fe b7       	in	r31, 0x3e	; 62
     9b0:	11 83       	std	Z+1, r17	; 0x01
     9b2:	8a e0       	ldi	r24, 0x0A	; 10
     9b4:	92 e0       	ldi	r25, 0x02	; 2
     9b6:	93 83       	std	Z+3, r25	; 0x03
     9b8:	82 83       	std	Z+2, r24	; 0x02
     9ba:	0e 94 ab 15 	call	0x2b56	; 0x2b56 <rprintf1RamRom>

	Cursor_Coordinate(131,45);
     9be:	0f 90       	pop	r0
     9c0:	0f 90       	pop	r0
     9c2:	0f 90       	pop	r0
     9c4:	83 e8       	ldi	r24, 0x83	; 131
     9c6:	6d e2       	ldi	r22, 0x2D	; 45
     9c8:	0e 94 16 02 	call	0x42c	; 0x42c <Cursor_Coordinate>
	rprintf("3");
     9cc:	00 d0       	rcall	.+0      	; 0x9ce <__stack+0x16f>
     9ce:	0f 92       	push	r0
     9d0:	ed b7       	in	r30, 0x3d	; 61
     9d2:	fe b7       	in	r31, 0x3e	; 62
     9d4:	11 83       	std	Z+1, r17	; 0x01
     9d6:	88 e0       	ldi	r24, 0x08	; 8
     9d8:	92 e0       	ldi	r25, 0x02	; 2
     9da:	93 83       	std	Z+3, r25	; 0x03
     9dc:	82 83       	std	Z+2, r24	; 0x02
     9de:	0e 94 ab 15 	call	0x2b56	; 0x2b56 <rprintf1RamRom>
	Cursor_Coordinate(131,73);
     9e2:	0f 90       	pop	r0
     9e4:	0f 90       	pop	r0
     9e6:	0f 90       	pop	r0
     9e8:	83 e8       	ldi	r24, 0x83	; 131
     9ea:	69 e4       	ldi	r22, 0x49	; 73
     9ec:	0e 94 16 02 	call	0x42c	; 0x42c <Cursor_Coordinate>
	rprintf("6");
     9f0:	00 d0       	rcall	.+0      	; 0x9f2 <__stack+0x193>
     9f2:	0f 92       	push	r0
     9f4:	ed b7       	in	r30, 0x3d	; 61
     9f6:	fe b7       	in	r31, 0x3e	; 62
     9f8:	11 83       	std	Z+1, r17	; 0x01
     9fa:	86 e0       	ldi	r24, 0x06	; 6
     9fc:	92 e0       	ldi	r25, 0x02	; 2
     9fe:	93 83       	std	Z+3, r25	; 0x03
     a00:	82 83       	std	Z+2, r24	; 0x02
     a02:	0e 94 ab 15 	call	0x2b56	; 0x2b56 <rprintf1RamRom>
	Cursor_Coordinate(131,101);
     a06:	0f 90       	pop	r0
     a08:	0f 90       	pop	r0
     a0a:	0f 90       	pop	r0
     a0c:	83 e8       	ldi	r24, 0x83	; 131
     a0e:	65 e6       	ldi	r22, 0x65	; 101
     a10:	0e 94 16 02 	call	0x42c	; 0x42c <Cursor_Coordinate>
	rprintf("9");
     a14:	00 d0       	rcall	.+0      	; 0xa16 <__stack+0x1b7>
     a16:	0f 92       	push	r0
     a18:	ed b7       	in	r30, 0x3d	; 61
     a1a:	fe b7       	in	r31, 0x3e	; 62
     a1c:	11 83       	std	Z+1, r17	; 0x01
     a1e:	84 e0       	ldi	r24, 0x04	; 4
     a20:	92 e0       	ldi	r25, 0x02	; 2
     a22:	93 83       	std	Z+3, r25	; 0x03
     a24:	82 83       	std	Z+2, r24	; 0x02
     a26:	0e 94 ab 15 	call	0x2b56	; 0x2b56 <rprintf1RamRom>

	Cursor_Coordinate(161,45);
     a2a:	0f 90       	pop	r0
     a2c:	0f 90       	pop	r0
     a2e:	0f 90       	pop	r0
     a30:	81 ea       	ldi	r24, 0xA1	; 161
     a32:	6d e2       	ldi	r22, 0x2D	; 45
     a34:	0e 94 16 02 	call	0x42c	; 0x42c <Cursor_Coordinate>
	rprintf("C");
     a38:	00 d0       	rcall	.+0      	; 0xa3a <__stack+0x1db>
     a3a:	0f 92       	push	r0
     a3c:	ed b7       	in	r30, 0x3d	; 61
     a3e:	fe b7       	in	r31, 0x3e	; 62
     a40:	11 83       	std	Z+1, r17	; 0x01
     a42:	82 e0       	ldi	r24, 0x02	; 2
     a44:	92 e0       	ldi	r25, 0x02	; 2
     a46:	93 83       	std	Z+3, r25	; 0x03
     a48:	82 83       	std	Z+2, r24	; 0x02
     a4a:	0e 94 ab 15 	call	0x2b56	; 0x2b56 <rprintf1RamRom>
	Cursor_Coordinate(161,73);
     a4e:	0f 90       	pop	r0
     a50:	0f 90       	pop	r0
     a52:	0f 90       	pop	r0
     a54:	81 ea       	ldi	r24, 0xA1	; 161
     a56:	69 e4       	ldi	r22, 0x49	; 73
     a58:	0e 94 16 02 	call	0x42c	; 0x42c <Cursor_Coordinate>
	rprintf("<");
     a5c:	00 d0       	rcall	.+0      	; 0xa5e <__stack+0x1ff>
     a5e:	0f 92       	push	r0
     a60:	ed b7       	in	r30, 0x3d	; 61
     a62:	fe b7       	in	r31, 0x3e	; 62
     a64:	11 83       	std	Z+1, r17	; 0x01
     a66:	80 e0       	ldi	r24, 0x00	; 0
     a68:	92 e0       	ldi	r25, 0x02	; 2
     a6a:	93 83       	std	Z+3, r25	; 0x03
     a6c:	82 83       	std	Z+2, r24	; 0x02
     a6e:	0e 94 ab 15 	call	0x2b56	; 0x2b56 <rprintf1RamRom>
	Cursor_Coordinate(161,101);
     a72:	0f 90       	pop	r0
     a74:	0f 90       	pop	r0
     a76:	0f 90       	pop	r0
     a78:	81 ea       	ldi	r24, 0xA1	; 161
     a7a:	65 e6       	ldi	r22, 0x65	; 101
     a7c:	0e 94 16 02 	call	0x42c	; 0x42c <Cursor_Coordinate>
	rprintf("0");
     a80:	00 d0       	rcall	.+0      	; 0xa82 <__stack+0x223>
     a82:	0f 92       	push	r0
     a84:	ed b7       	in	r30, 0x3d	; 61
     a86:	fe b7       	in	r31, 0x3e	; 62
     a88:	11 83       	std	Z+1, r17	; 0x01
     a8a:	8e ef       	ldi	r24, 0xFE	; 254
     a8c:	91 e0       	ldi	r25, 0x01	; 1
     a8e:	93 83       	std	Z+3, r25	; 0x03
     a90:	82 83       	std	Z+2, r24	; 0x02
     a92:	0e 94 ab 15 	call	0x2b56	; 0x2b56 <rprintf1RamRom>
     a96:	0f 90       	pop	r0
     a98:	0f 90       	pop	r0
     a9a:	0f 90       	pop	r0
}
     a9c:	1f 91       	pop	r17
     a9e:	0f 91       	pop	r16
     aa0:	ff 90       	pop	r15
     aa2:	ef 90       	pop	r14
     aa4:	08 95       	ret

00000aa6 <Button_Feedback>:
   for(i=0;i<spaces;i++)
      rprintfChar(" ");  
}

void Button_Feedback(uint8_t x1, uint8_t y1, uint8_t x2, uint8_t y2)
{
     aa6:	9f 92       	push	r9
     aa8:	af 92       	push	r10
     aaa:	bf 92       	push	r11
     aac:	cf 92       	push	r12
     aae:	df 92       	push	r13
     ab0:	ef 92       	push	r14
     ab2:	ff 92       	push	r15
     ab4:	0f 93       	push	r16
     ab6:	1f 93       	push	r17
     ab8:	18 2f       	mov	r17, r24
     aba:	f6 2e       	mov	r15, r22
     abc:	e4 2e       	mov	r14, r20
     abe:	d2 2e       	mov	r13, r18
	Draw_Rect_At(255, x1+1, y1+1, x2-1, y2-1);
     ac0:	c8 2e       	mov	r12, r24
     ac2:	c3 94       	inc	r12
     ac4:	b6 2e       	mov	r11, r22
     ac6:	b3 94       	inc	r11
     ac8:	a4 2e       	mov	r10, r20
     aca:	aa 94       	dec	r10
     acc:	92 2e       	mov	r9, r18
     ace:	9a 94       	dec	r9
     ad0:	8f ef       	ldi	r24, 0xFF	; 255
     ad2:	6c 2d       	mov	r22, r12
     ad4:	4b 2d       	mov	r20, r11
     ad6:	2a 2d       	mov	r18, r10
     ad8:	09 2d       	mov	r16, r9
     ada:	0e 94 c9 03 	call	0x792	; 0x792 <Draw_Rect_At>
	Draw_Rect_At(255, x1+2, y1+2, x2-2, y2-2);
     ade:	1e 5f       	subi	r17, 0xFE	; 254
     ae0:	82 e0       	ldi	r24, 0x02	; 2
     ae2:	f8 0e       	add	r15, r24
     ae4:	8e ef       	ldi	r24, 0xFE	; 254
     ae6:	e8 0e       	add	r14, r24
     ae8:	d8 0e       	add	r13, r24
     aea:	8f ef       	ldi	r24, 0xFF	; 255
     aec:	61 2f       	mov	r22, r17
     aee:	4f 2d       	mov	r20, r15
     af0:	2e 2d       	mov	r18, r14
     af2:	0d 2d       	mov	r16, r13
     af4:	0e 94 c9 03 	call	0x792	; 0x792 <Draw_Rect_At>
     af8:	80 e0       	ldi	r24, 0x00	; 0
     afa:	90 e0       	ldi	r25, 0x00	; 0
     afc:	fc 01       	movw	r30, r24
     afe:	31 97       	sbiw	r30, 0x01	; 1
     b00:	f1 f7       	brne	.-4      	; 0xafe <Button_Feedback+0x58>
     b02:	fc 01       	movw	r30, r24
     b04:	31 97       	sbiw	r30, 0x01	; 1
     b06:	f1 f7       	brne	.-4      	; 0xb04 <Button_Feedback+0x5e>
     b08:	fc 01       	movw	r30, r24
     b0a:	31 97       	sbiw	r30, 0x01	; 1
     b0c:	f1 f7       	brne	.-4      	; 0xb0a <Button_Feedback+0x64>
     b0e:	01 97       	sbiw	r24, 0x01	; 1
     b10:	f1 f7       	brne	.-4      	; 0xb0e <Button_Feedback+0x68>
	Wait(button_delay);
	Draw_Rect_At(0, x1+1, y1+1, x2-1, y2-1);
     b12:	80 e0       	ldi	r24, 0x00	; 0
     b14:	6c 2d       	mov	r22, r12
     b16:	4b 2d       	mov	r20, r11
     b18:	2a 2d       	mov	r18, r10
     b1a:	09 2d       	mov	r16, r9
     b1c:	0e 94 c9 03 	call	0x792	; 0x792 <Draw_Rect_At>
	Draw_Rect_At(0, x1+2, y1+2, x2-2, y2-2);
     b20:	80 e0       	ldi	r24, 0x00	; 0
     b22:	61 2f       	mov	r22, r17
     b24:	4f 2d       	mov	r20, r15
     b26:	2e 2d       	mov	r18, r14
     b28:	0d 2d       	mov	r16, r13
     b2a:	0e 94 c9 03 	call	0x792	; 0x792 <Draw_Rect_At>
}
     b2e:	1f 91       	pop	r17
     b30:	0f 91       	pop	r16
     b32:	ff 90       	pop	r15
     b34:	ef 90       	pop	r14
     b36:	df 90       	pop	r13
     b38:	cf 90       	pop	r12
     b3a:	bf 90       	pop	r11
     b3c:	af 90       	pop	r10
     b3e:	9f 90       	pop	r9
     b40:	08 95       	ret

00000b42 <Draw_Solid_Rect>:
	Command_Display(Touch_Calibrat);

}

void Draw_Solid_Rect(unsigned char color, unsigned char x1, unsigned char y1, unsigned char x2, unsigned char y2)
{	
     b42:	df 92       	push	r13
     b44:	ef 92       	push	r14
     b46:	ff 92       	push	r15
     b48:	0f 93       	push	r16
     b4a:	1f 93       	push	r17
     b4c:	18 2f       	mov	r17, r24
     b4e:	f6 2e       	mov	r15, r22
     b50:	e4 2e       	mov	r14, r20
     b52:	d2 2e       	mov	r13, r18
	Command_Display(DRW_Solid_Rect);
     b54:	88 e7       	ldi	r24, 0x78	; 120
     b56:	0e 94 04 02 	call	0x408	; 0x408 <Command_Display>
	rprintfChar(color);
     b5a:	81 2f       	mov	r24, r17
     b5c:	0e 94 a2 14 	call	0x2944	; 0x2944 <rprintfChar>
	rprintfChar(x1);
     b60:	8f 2d       	mov	r24, r15
     b62:	0e 94 a2 14 	call	0x2944	; 0x2944 <rprintfChar>
	rprintfChar(y1);
     b66:	8e 2d       	mov	r24, r14
     b68:	0e 94 a2 14 	call	0x2944	; 0x2944 <rprintfChar>
	rprintfChar(x2);
     b6c:	8d 2d       	mov	r24, r13
     b6e:	0e 94 a2 14 	call	0x2944	; 0x2944 <rprintfChar>
	rprintfChar(y2);
     b72:	80 2f       	mov	r24, r16
     b74:	0e 94 a2 14 	call	0x2944	; 0x2944 <rprintfChar>
}
     b78:	1f 91       	pop	r17
     b7a:	0f 91       	pop	r16
     b7c:	ff 90       	pop	r15
     b7e:	ef 90       	pop	r14
     b80:	df 90       	pop	r13
     b82:	08 95       	ret

00000b84 <Set_Touch_Region>:
	Command_Display(Touch_Mode);
	rprintfChar(touch_mode);
}
void Set_Touch_Region(unsigned char RegNum, unsigned char x, unsigned char y, 
						unsigned char w, unsigned char h, unsigned char key_down, unsigned char key_up)
{
     b84:	bf 92       	push	r11
     b86:	cf 92       	push	r12
     b88:	df 92       	push	r13
     b8a:	ef 92       	push	r14
     b8c:	ff 92       	push	r15
     b8e:	0f 93       	push	r16
     b90:	1f 93       	push	r17
     b92:	18 2f       	mov	r17, r24
     b94:	f6 2e       	mov	r15, r22
     b96:	d4 2e       	mov	r13, r20
     b98:	b2 2e       	mov	r11, r18
	Command_Display(Touch_Region);
     b9a:	84 e8       	ldi	r24, 0x84	; 132
     b9c:	0e 94 04 02 	call	0x408	; 0x408 <Command_Display>
	rprintfChar(RegNum);
     ba0:	81 2f       	mov	r24, r17
     ba2:	0e 94 a2 14 	call	0x2944	; 0x2944 <rprintfChar>
	rprintfChar(x);
     ba6:	8f 2d       	mov	r24, r15
     ba8:	0e 94 a2 14 	call	0x2944	; 0x2944 <rprintfChar>
	rprintfChar(y);
     bac:	8d 2d       	mov	r24, r13
     bae:	0e 94 a2 14 	call	0x2944	; 0x2944 <rprintfChar>
	rprintfChar(w);
     bb2:	8b 2d       	mov	r24, r11
     bb4:	0e 94 a2 14 	call	0x2944	; 0x2944 <rprintfChar>
	rprintfChar(h);
     bb8:	80 2f       	mov	r24, r16
     bba:	0e 94 a2 14 	call	0x2944	; 0x2944 <rprintfChar>
	rprintfChar(key_down);
     bbe:	8e 2d       	mov	r24, r14
     bc0:	0e 94 a2 14 	call	0x2944	; 0x2944 <rprintfChar>
	rprintfChar(key_up);
     bc4:	8c 2d       	mov	r24, r12
     bc6:	0e 94 a2 14 	call	0x2944	; 0x2944 <rprintfChar>
}
     bca:	1f 91       	pop	r17
     bcc:	0f 91       	pop	r16
     bce:	ff 90       	pop	r15
     bd0:	ef 90       	pop	r14
     bd2:	df 90       	pop	r13
     bd4:	cf 90       	pop	r12
     bd6:	bf 90       	pop	r11
     bd8:	08 95       	ret

00000bda <Set_Touch_Mode>:
{
	Command_Display(Delete_Region);
}

void Set_Touch_Mode(unsigned char touch_mode)
{
     bda:	1f 93       	push	r17
     bdc:	18 2f       	mov	r17, r24
	Command_Display(Touch_Mode);
     bde:	87 e8       	ldi	r24, 0x87	; 135
     be0:	0e 94 04 02 	call	0x408	; 0x408 <Command_Display>
	rprintfChar(touch_mode);
     be4:	81 2f       	mov	r24, r17
     be6:	0e 94 a2 14 	call	0x2944	; 0x2944 <rprintfChar>
}
     bea:	1f 91       	pop	r17
     bec:	08 95       	ret

00000bee <Draw_Touch_Region>:

void Draw_Touch_Region()
{
     bee:	af 92       	push	r10
     bf0:	bf 92       	push	r11
     bf2:	cf 92       	push	r12
     bf4:	ef 92       	push	r14
     bf6:	0f 93       	push	r16
	Set_Touch_Mode(Region); // Region or Co_ordinate
     bf8:	80 e0       	ldi	r24, 0x00	; 0
     bfa:	0e 94 ed 05 	call	0xbda	; 0xbda <Set_Touch_Mode>
	Delete_All_Regions();
     bfe:	0e 94 12 02 	call	0x424	; 0x424 <Delete_All_Regions>
     c02:	aa 24       	eor	r10, r10
     c04:	bb 24       	eor	r11, r11
     c06:	c5 01       	movw	r24, r10
     c08:	01 97       	sbiw	r24, 0x01	; 1
     c0a:	f1 f7       	brne	.-4      	; 0xc08 <Draw_Touch_Region+0x1a>
	
	Wait(1);
	Set_Touch_Region(1, 65, 38, 19, 19, 1, 10);		// 1, 10)
     c0c:	81 e0       	ldi	r24, 0x01	; 1
     c0e:	61 e4       	ldi	r22, 0x41	; 65
     c10:	46 e2       	ldi	r20, 0x26	; 38
     c12:	23 e1       	ldi	r18, 0x13	; 19
     c14:	03 e1       	ldi	r16, 0x13	; 19
     c16:	ee 24       	eor	r14, r14
     c18:	e3 94       	inc	r14
     c1a:	aa e0       	ldi	r26, 0x0A	; 10
     c1c:	ca 2e       	mov	r12, r26
     c1e:	0e 94 c2 05 	call	0xb84	; 0xb84 <Set_Touch_Region>
	Set_Touch_Region(4, 65, 66, 19, 19, 4, 40); 	// 4, 40)
     c22:	84 e0       	ldi	r24, 0x04	; 4
     c24:	61 e4       	ldi	r22, 0x41	; 65
     c26:	42 e4       	ldi	r20, 0x42	; 66
     c28:	23 e1       	ldi	r18, 0x13	; 19
     c2a:	f4 e0       	ldi	r31, 0x04	; 4
     c2c:	ef 2e       	mov	r14, r31
     c2e:	e8 e2       	ldi	r30, 0x28	; 40
     c30:	ce 2e       	mov	r12, r30
     c32:	0e 94 c2 05 	call	0xb84	; 0xb84 <Set_Touch_Region>
	Set_Touch_Region(7, 65, 94, 19, 19, 7, 70);		// 7, 70)
     c36:	87 e0       	ldi	r24, 0x07	; 7
     c38:	61 e4       	ldi	r22, 0x41	; 65
     c3a:	4e e5       	ldi	r20, 0x5E	; 94
     c3c:	23 e1       	ldi	r18, 0x13	; 19
     c3e:	77 e0       	ldi	r23, 0x07	; 7
     c40:	e7 2e       	mov	r14, r23
     c42:	56 e4       	ldi	r21, 0x46	; 70
     c44:	c5 2e       	mov	r12, r21
     c46:	0e 94 c2 05 	call	0xb84	; 0xb84 <Set_Touch_Region>
     c4a:	c5 01       	movw	r24, r10
     c4c:	01 97       	sbiw	r24, 0x01	; 1
     c4e:	f1 f7       	brne	.-4      	; 0xc4c <Draw_Touch_Region+0x5e>
	
	Wait(1);
	Set_Touch_Region(2, 93, 38, 19, 19, 2, 20);		// 2, 20)
     c50:	82 e0       	ldi	r24, 0x02	; 2
     c52:	6d e5       	ldi	r22, 0x5D	; 93
     c54:	46 e2       	ldi	r20, 0x26	; 38
     c56:	23 e1       	ldi	r18, 0x13	; 19
     c58:	32 e0       	ldi	r19, 0x02	; 2
     c5a:	e3 2e       	mov	r14, r19
     c5c:	94 e1       	ldi	r25, 0x14	; 20
     c5e:	c9 2e       	mov	r12, r25
     c60:	0e 94 c2 05 	call	0xb84	; 0xb84 <Set_Touch_Region>
	Set_Touch_Region(5, 93, 66, 19, 19, 5, 50);		// 5, 50)
     c64:	85 e0       	ldi	r24, 0x05	; 5
     c66:	6d e5       	ldi	r22, 0x5D	; 93
     c68:	42 e4       	ldi	r20, 0x42	; 66
     c6a:	23 e1       	ldi	r18, 0x13	; 19
     c6c:	b5 e0       	ldi	r27, 0x05	; 5
     c6e:	eb 2e       	mov	r14, r27
     c70:	a2 e3       	ldi	r26, 0x32	; 50
     c72:	ca 2e       	mov	r12, r26
     c74:	0e 94 c2 05 	call	0xb84	; 0xb84 <Set_Touch_Region>
	Set_Touch_Region(8, 93, 94, 19, 19, 8, 80);		// 8, 80)
     c78:	88 e0       	ldi	r24, 0x08	; 8
     c7a:	6d e5       	ldi	r22, 0x5D	; 93
     c7c:	4e e5       	ldi	r20, 0x5E	; 94
     c7e:	23 e1       	ldi	r18, 0x13	; 19
     c80:	f8 e0       	ldi	r31, 0x08	; 8
     c82:	ef 2e       	mov	r14, r31
     c84:	e0 e5       	ldi	r30, 0x50	; 80
     c86:	ce 2e       	mov	r12, r30
     c88:	0e 94 c2 05 	call	0xb84	; 0xb84 <Set_Touch_Region>
     c8c:	c5 01       	movw	r24, r10
     c8e:	01 97       	sbiw	r24, 0x01	; 1
     c90:	f1 f7       	brne	.-4      	; 0xc8e <Draw_Touch_Region+0xa0>

	Wait(1);
	Set_Touch_Region(3, 121, 38, 19, 19, 3, 30);	// 3, 30)	
     c92:	83 e0       	ldi	r24, 0x03	; 3
     c94:	69 e7       	ldi	r22, 0x79	; 121
     c96:	46 e2       	ldi	r20, 0x26	; 38
     c98:	23 e1       	ldi	r18, 0x13	; 19
     c9a:	73 e0       	ldi	r23, 0x03	; 3
     c9c:	e7 2e       	mov	r14, r23
     c9e:	5e e1       	ldi	r21, 0x1E	; 30
     ca0:	c5 2e       	mov	r12, r21
     ca2:	0e 94 c2 05 	call	0xb84	; 0xb84 <Set_Touch_Region>
	Set_Touch_Region(6, 121, 66, 19, 19, 6, 60);	// 6, 60)
     ca6:	86 e0       	ldi	r24, 0x06	; 6
     ca8:	69 e7       	ldi	r22, 0x79	; 121
     caa:	42 e4       	ldi	r20, 0x42	; 66
     cac:	23 e1       	ldi	r18, 0x13	; 19
     cae:	36 e0       	ldi	r19, 0x06	; 6
     cb0:	e3 2e       	mov	r14, r19
     cb2:	9c e3       	ldi	r25, 0x3C	; 60
     cb4:	c9 2e       	mov	r12, r25
     cb6:	0e 94 c2 05 	call	0xb84	; 0xb84 <Set_Touch_Region>
	Set_Touch_Region(9, 121, 94, 19, 19, 9, 90);	// 9, 90)	
     cba:	89 e0       	ldi	r24, 0x09	; 9
     cbc:	69 e7       	ldi	r22, 0x79	; 121
     cbe:	4e e5       	ldi	r20, 0x5E	; 94
     cc0:	23 e1       	ldi	r18, 0x13	; 19
     cc2:	b9 e0       	ldi	r27, 0x09	; 9
     cc4:	eb 2e       	mov	r14, r27
     cc6:	aa e5       	ldi	r26, 0x5A	; 90
     cc8:	ca 2e       	mov	r12, r26
     cca:	0e 94 c2 05 	call	0xb84	; 0xb84 <Set_Touch_Region>
     cce:	c5 01       	movw	r24, r10
     cd0:	01 97       	sbiw	r24, 0x01	; 1
     cd2:	f1 f7       	brne	.-4      	; 0xcd0 <Draw_Touch_Region+0xe2>

	Wait(1);
	Set_Touch_Region(12, 152, 38, 19, 19, 13, 14);	// 13, 14)
     cd4:	8c e0       	ldi	r24, 0x0C	; 12
     cd6:	68 e9       	ldi	r22, 0x98	; 152
     cd8:	46 e2       	ldi	r20, 0x26	; 38
     cda:	23 e1       	ldi	r18, 0x13	; 19
     cdc:	fd e0       	ldi	r31, 0x0D	; 13
     cde:	ef 2e       	mov	r14, r31
     ce0:	ee e0       	ldi	r30, 0x0E	; 14
     ce2:	ce 2e       	mov	r12, r30
     ce4:	0e 94 c2 05 	call	0xb84	; 0xb84 <Set_Touch_Region>
	Set_Touch_Region(11, 152, 66, 19, 19, 11, 12);	// 11, 12)	
     ce8:	8b e0       	ldi	r24, 0x0B	; 11
     cea:	68 e9       	ldi	r22, 0x98	; 152
     cec:	42 e4       	ldi	r20, 0x42	; 66
     cee:	23 e1       	ldi	r18, 0x13	; 19
     cf0:	7b e0       	ldi	r23, 0x0B	; 11
     cf2:	e7 2e       	mov	r14, r23
     cf4:	5c e0       	ldi	r21, 0x0C	; 12
     cf6:	c5 2e       	mov	r12, r21
     cf8:	0e 94 c2 05 	call	0xb84	; 0xb84 <Set_Touch_Region>
	Set_Touch_Region(10, 152, 94, 19, 19, 101, 100);	//101, 100)
     cfc:	8a e0       	ldi	r24, 0x0A	; 10
     cfe:	68 e9       	ldi	r22, 0x98	; 152
     d00:	4e e5       	ldi	r20, 0x5E	; 94
     d02:	23 e1       	ldi	r18, 0x13	; 19
     d04:	35 e6       	ldi	r19, 0x65	; 101
     d06:	e3 2e       	mov	r14, r19
     d08:	94 e6       	ldi	r25, 0x64	; 100
     d0a:	c9 2e       	mov	r12, r25
     d0c:	0e 94 c2 05 	call	0xb84	; 0xb84 <Set_Touch_Region>
}
     d10:	0f 91       	pop	r16
     d12:	ef 90       	pop	r14
     d14:	cf 90       	pop	r12
     d16:	bf 90       	pop	r11
     d18:	af 90       	pop	r10
     d1a:	08 95       	ret

00000d1c <Write_Blank>:
   for(i=0;i<time;i++)
      _delay_loop_2(0); 
}

void Write_Blank(uint8_t spaces)
{
     d1c:	0f 93       	push	r16
     d1e:	1f 93       	push	r17
     d20:	cf 93       	push	r28
     d22:	df 93       	push	r29
     d24:	08 2f       	mov	r16, r24
     d26:	10 e0       	ldi	r17, 0x00	; 0
   uint8_t i;
   for(i=0;i<spaces;i++)
      rprintfChar(" ");  
     d28:	c0 e6       	ldi	r28, 0x60	; 96
     d2a:	d0 e0       	ldi	r29, 0x00	; 0
     d2c:	04 c0       	rjmp	.+8      	; 0xd36 <Write_Blank+0x1a>
     d2e:	8c 2f       	mov	r24, r28
     d30:	0e 94 a2 14 	call	0x2944	; 0x2944 <rprintfChar>
}

void Write_Blank(uint8_t spaces)
{
   uint8_t i;
   for(i=0;i<spaces;i++)
     d34:	1f 5f       	subi	r17, 0xFF	; 255
     d36:	10 17       	cp	r17, r16
     d38:	d0 f3       	brcs	.-12     	; 0xd2e <Write_Blank+0x12>
      rprintfChar(" ");  
}
     d3a:	df 91       	pop	r29
     d3c:	cf 91       	pop	r28
     d3e:	1f 91       	pop	r17
     d40:	0f 91       	pop	r16
     d42:	08 95       	ret

00000d44 <appControl>:

return 0; // dont pause after
}
/***********************************************************************************/
// This routine is called repeatedly - its your main loop
TICK_COUNT appControl(LOOP_COUNT loopCount, TICK_COUNT loopStart){
     d44:	3f 92       	push	r3
     d46:	4f 92       	push	r4
     d48:	5f 92       	push	r5
     d4a:	6f 92       	push	r6
     d4c:	7f 92       	push	r7
     d4e:	8f 92       	push	r8
     d50:	9f 92       	push	r9
     d52:	af 92       	push	r10
     d54:	bf 92       	push	r11
     d56:	cf 92       	push	r12
     d58:	df 92       	push	r13
     d5a:	ef 92       	push	r14
     d5c:	ff 92       	push	r15
     d5e:	0f 93       	push	r16
     d60:	1f 93       	push	r17
}
*/
	


if(sonyPS2_read(&controller1))
     d62:	84 e9       	ldi	r24, 0x94	; 148
     d64:	90 e0       	ldi	r25, 0x00	; 0
     d66:	0e 94 45 0c 	call	0x188a	; 0x188a <sonyPS2_read>
     d6a:	88 23       	and	r24, r24
     d6c:	09 f4       	brne	.+2      	; 0xd70 <appControl+0x2c>
     d6e:	05 c2       	rjmp	.+1034   	; 0x117a <appControl+0x436>


void LED_set(LED* led,	boolean value);

static __inline__ void LED_on(LED* led){
	LED_set(led,TRUE);
     d70:	8c ec       	ldi	r24, 0xCC	; 204
     d72:	90 e0       	ldi	r25, 0x00	; 0
     d74:	6f ef       	ldi	r22, 0xFF	; 255
     d76:	0e 94 ed 12 	call	0x25da	; 0x25da <LED_set>
{
	LED_on(&boardLED0);

	int	data1 = 0xFF & sonyPS2_buttonsRaw(&controller1);
     d7a:	84 e9       	ldi	r24, 0x94	; 148
     d7c:	90 e0       	ldi	r25, 0x00	; 0
     d7e:	0e 94 9a 0a 	call	0x1534	; 0x1534 <sonyPS2_buttonsRaw>
     d82:	3c 01       	movw	r6, r24
    int	data0 = (0xFF00 & sonyPS2_buttonsRaw(&controller1))>>8;
     d84:	84 e9       	ldi	r24, 0x94	; 148
     d86:	90 e0       	ldi	r25, 0x00	; 0
     d88:	0e 94 9a 0a 	call	0x1534	; 0x1534 <sonyPS2_buttonsRaw>
     d8c:	39 2e       	mov	r3, r25
	uint16_t raw = sonyPS2_buttonsRaw(&controller1);
     d8e:	84 e9       	ldi	r24, 0x94	; 148
     d90:	90 e0       	ldi	r25, 0x00	; 0
     d92:	0e 94 9a 0a 	call	0x1534	; 0x1534 <sonyPS2_buttonsRaw>
     d96:	5c 01       	movw	r10, r24
	
	char xButton_pressure = sonyPS2_buttonPressure(&controller1, PS2_BTN_X);
     d98:	84 e9       	ldi	r24, 0x94	; 148
     d9a:	90 e0       	ldi	r25, 0x00	; 0
     d9c:	60 e0       	ldi	r22, 0x00	; 0
     d9e:	70 e4       	ldi	r23, 0x40	; 64
     da0:	0e 94 ae 0a 	call	0x155c	; 0x155c <sonyPS2_buttonPressure>
     da4:	e8 2e       	mov	r14, r24
	Cursor_Coordinate(150,50);
     da6:	86 e9       	ldi	r24, 0x96	; 150
     da8:	62 e3       	ldi	r22, 0x32	; 50
     daa:	0e 94 16 02 	call	0x42c	; 0x42c <Cursor_Coordinate>
	Write_Blank(3);
     dae:	83 e0       	ldi	r24, 0x03	; 3
     db0:	0e 94 8e 06 	call	0xd1c	; 0xd1c <Write_Blank>
	Cursor_Coordinate(150,50);
     db4:	86 e9       	ldi	r24, 0x96	; 150
     db6:	62 e3       	ldi	r22, 0x32	; 50
     db8:	0e 94 16 02 	call	0x42c	; 0x42c <Cursor_Coordinate>
	rprintfNum(10, 4, true, ' ', xButton_pressure);
     dbc:	ff 24       	eor	r15, r15
     dbe:	00 e0       	ldi	r16, 0x00	; 0
     dc0:	10 e0       	ldi	r17, 0x00	; 0
     dc2:	8a e0       	ldi	r24, 0x0A	; 10
     dc4:	64 e0       	ldi	r22, 0x04	; 4
     dc6:	4f ef       	ldi	r20, 0xFF	; 255
     dc8:	20 e2       	ldi	r18, 0x20	; 32
     dca:	0e 94 f2 14 	call	0x29e4	; 0x29e4 <rprintfNum>
     dce:	44 24       	eor	r4, r4
     dd0:	55 24       	eor	r5, r5
     dd2:	c2 01       	movw	r24, r4
     dd4:	01 97       	sbiw	r24, 0x01	; 1
     dd6:	f1 f7       	brne	.-4      	; 0xdd4 <appControl+0x90>

	Wait(1);
	Cursor_Coordinate(60,20);
     dd8:	8c e3       	ldi	r24, 0x3C	; 60
     dda:	64 e1       	ldi	r22, 0x14	; 20
     ddc:	0e 94 16 02 	call	0x42c	; 0x42c <Cursor_Coordinate>
	Write_Blank(4);
     de0:	84 e0       	ldi	r24, 0x04	; 4
     de2:	0e 94 8e 06 	call	0xd1c	; 0xd1c <Write_Blank>
	Cursor_Coordinate(60,20);
     de6:	8c e3       	ldi	r24, 0x3C	; 60
     de8:	64 e1       	ldi	r22, 0x14	; 20
     dea:	0e 94 16 02 	call	0x42c	; 0x42c <Cursor_Coordinate>
	rprintfNum(10, 5, false, ' ', raw);
     dee:	cc 24       	eor	r12, r12
     df0:	dd 24       	eor	r13, r13
     df2:	8a e0       	ldi	r24, 0x0A	; 10
     df4:	65 e0       	ldi	r22, 0x05	; 5
     df6:	40 e0       	ldi	r20, 0x00	; 0
     df8:	20 e2       	ldi	r18, 0x20	; 32
     dfa:	86 01       	movw	r16, r12
     dfc:	75 01       	movw	r14, r10
     dfe:	0e 94 f2 14 	call	0x29e4	; 0x29e4 <rprintfNum>
	Cursor_Coordinate(60,90);
     e02:	8c e3       	ldi	r24, 0x3C	; 60
     e04:	6a e5       	ldi	r22, 0x5A	; 90
     e06:	0e 94 16 02 	call	0x42c	; 0x42c <Cursor_Coordinate>
	Write_Blank(3);
     e0a:	83 e0       	ldi	r24, 0x03	; 3
     e0c:	0e 94 8e 06 	call	0xd1c	; 0xd1c <Write_Blank>
	Cursor_Coordinate(60,90);
     e10:	8c e3       	ldi	r24, 0x3C	; 60
     e12:	6a e5       	ldi	r22, 0x5A	; 90
     e14:	0e 94 16 02 	call	0x42c	; 0x42c <Cursor_Coordinate>
	rprintfNum(10, 4, false, ' ', data1);
     e18:	8f ef       	ldi	r24, 0xFF	; 255
     e1a:	68 22       	and	r6, r24
     e1c:	77 24       	eor	r7, r7
     e1e:	88 24       	eor	r8, r8
     e20:	77 fc       	sbrc	r7, 7
     e22:	80 94       	com	r8
     e24:	98 2c       	mov	r9, r8
     e26:	8a e0       	ldi	r24, 0x0A	; 10
     e28:	64 e0       	ldi	r22, 0x04	; 4
     e2a:	40 e0       	ldi	r20, 0x00	; 0
     e2c:	20 e2       	ldi	r18, 0x20	; 32
     e2e:	84 01       	movw	r16, r8
     e30:	73 01       	movw	r14, r6
     e32:	0e 94 f2 14 	call	0x29e4	; 0x29e4 <rprintfNum>
     e36:	c2 01       	movw	r24, r4
     e38:	01 97       	sbiw	r24, 0x01	; 1
     e3a:	f1 f7       	brne	.-4      	; 0xe38 <appControl+0xf4>
	Wait(1);
	Cursor_Coordinate(60,100);
     e3c:	8c e3       	ldi	r24, 0x3C	; 60
     e3e:	64 e6       	ldi	r22, 0x64	; 100
     e40:	0e 94 16 02 	call	0x42c	; 0x42c <Cursor_Coordinate>
	Write_Blank(3);
     e44:	83 e0       	ldi	r24, 0x03	; 3
     e46:	0e 94 8e 06 	call	0xd1c	; 0xd1c <Write_Blank>
	Cursor_Coordinate(60,100);
     e4a:	8c e3       	ldi	r24, 0x3C	; 60
     e4c:	64 e6       	ldi	r22, 0x64	; 100
     e4e:	0e 94 16 02 	call	0x42c	; 0x42c <Cursor_Coordinate>
	rprintfNum(10, 4, false, ' ', data0);
     e52:	e3 2c       	mov	r14, r3
     e54:	ff 24       	eor	r15, r15
     e56:	00 27       	eor	r16, r16
     e58:	f7 fc       	sbrc	r15, 7
     e5a:	00 95       	com	r16
     e5c:	10 2f       	mov	r17, r16
     e5e:	8a e0       	ldi	r24, 0x0A	; 10
     e60:	64 e0       	ldi	r22, 0x04	; 4
     e62:	40 e0       	ldi	r20, 0x00	; 0
     e64:	20 e2       	ldi	r18, 0x20	; 32
     e66:	0e 94 f2 14 	call	0x29e4	; 0x29e4 <rprintfNum>
	if(sonyPS2_setAnalogMode(&controller1))
     e6a:	84 e9       	ldi	r24, 0x94	; 148
     e6c:	90 e0       	ldi	r25, 0x00	; 0
     e6e:	0e 94 af 0c 	call	0x195e	; 0x195e <sonyPS2_setAnalogMode>
     e72:	88 23       	and	r24, r24
     e74:	d1 f0       	breq	.+52     	; 0xeaa <appControl+0x166>
	{
		char shape_y = sonyPS2_joystick(&controller1, PS2_STICK_SHAPE_Y);
     e76:	84 e9       	ldi	r24, 0x94	; 148
     e78:	90 e0       	ldi	r25, 0x00	; 0
     e7a:	61 e0       	ldi	r22, 0x01	; 1
     e7c:	0e 94 60 0b 	call	0x16c0	; 0x16c0 <sonyPS2_joystick>
     e80:	e8 2e       	mov	r14, r24
		Cursor_Coordinate(150,30);
     e82:	86 e9       	ldi	r24, 0x96	; 150
     e84:	6e e1       	ldi	r22, 0x1E	; 30
     e86:	0e 94 16 02 	call	0x42c	; 0x42c <Cursor_Coordinate>
		Write_Blank(3);
     e8a:	83 e0       	ldi	r24, 0x03	; 3
     e8c:	0e 94 8e 06 	call	0xd1c	; 0xd1c <Write_Blank>
		Cursor_Coordinate(150,30);
     e90:	86 e9       	ldi	r24, 0x96	; 150
     e92:	6e e1       	ldi	r22, 0x1E	; 30
     e94:	0e 94 16 02 	call	0x42c	; 0x42c <Cursor_Coordinate>
		rprintfNum(10, 4, true, ' ', shape_y);
     e98:	ff 24       	eor	r15, r15
     e9a:	00 e0       	ldi	r16, 0x00	; 0
     e9c:	10 e0       	ldi	r17, 0x00	; 0
     e9e:	8a e0       	ldi	r24, 0x0A	; 10
     ea0:	64 e0       	ldi	r22, 0x04	; 4
     ea2:	4f ef       	ldi	r20, 0xFF	; 255
     ea4:	20 e2       	ldi	r18, 0x20	; 32
     ea6:	0e 94 f2 14 	call	0x29e4	; 0x29e4 <rprintfNum>
     eaa:	80 e0       	ldi	r24, 0x00	; 0
     eac:	90 e0       	ldi	r25, 0x00	; 0
     eae:	01 97       	sbiw	r24, 0x01	; 1
     eb0:	f1 f7       	brne	.-4      	; 0xeae <appControl+0x16a>
	}
	Wait(1);
	if(sonyPS2_setAnalogMode(&controller1))
     eb2:	84 e9       	ldi	r24, 0x94	; 148
     eb4:	90 e0       	ldi	r25, 0x00	; 0
     eb6:	0e 94 af 0c 	call	0x195e	; 0x195e <sonyPS2_setAnalogMode>
     eba:	88 23       	and	r24, r24
     ebc:	d1 f0       	breq	.+52     	; 0xef2 <appControl+0x1ae>
	{
		char shape_x = sonyPS2_joystick(&controller1, PS2_STICK_SHAPE_X);
     ebe:	84 e9       	ldi	r24, 0x94	; 148
     ec0:	90 e0       	ldi	r25, 0x00	; 0
     ec2:	60 e0       	ldi	r22, 0x00	; 0
     ec4:	0e 94 60 0b 	call	0x16c0	; 0x16c0 <sonyPS2_joystick>
     ec8:	e8 2e       	mov	r14, r24
		Cursor_Coordinate(150,40);
     eca:	86 e9       	ldi	r24, 0x96	; 150
     ecc:	68 e2       	ldi	r22, 0x28	; 40
     ece:	0e 94 16 02 	call	0x42c	; 0x42c <Cursor_Coordinate>
		Write_Blank(3);
     ed2:	83 e0       	ldi	r24, 0x03	; 3
     ed4:	0e 94 8e 06 	call	0xd1c	; 0xd1c <Write_Blank>
		Cursor_Coordinate(150,40);
     ed8:	86 e9       	ldi	r24, 0x96	; 150
     eda:	68 e2       	ldi	r22, 0x28	; 40
     edc:	0e 94 16 02 	call	0x42c	; 0x42c <Cursor_Coordinate>
		rprintfNum(10, 4, true, ' ', shape_x);
     ee0:	ff 24       	eor	r15, r15
     ee2:	00 e0       	ldi	r16, 0x00	; 0
     ee4:	10 e0       	ldi	r17, 0x00	; 0
     ee6:	8a e0       	ldi	r24, 0x0A	; 10
     ee8:	64 e0       	ldi	r22, 0x04	; 4
     eea:	4f ef       	ldi	r20, 0xFF	; 255
     eec:	20 e2       	ldi	r18, 0x20	; 32
     eee:	0e 94 f2 14 	call	0x29e4	; 0x29e4 <rprintfNum>
	}
	if(sonyPS2_setAnalogMode(&controller1))
     ef2:	84 e9       	ldi	r24, 0x94	; 148
     ef4:	90 e0       	ldi	r25, 0x00	; 0
     ef6:	0e 94 af 0c 	call	0x195e	; 0x195e <sonyPS2_setAnalogMode>
     efa:	88 23       	and	r24, r24
     efc:	d1 f0       	breq	.+52     	; 0xf32 <appControl+0x1ee>
	{
		char dpad_y = sonyPS2_joystick(&controller1, PS2_STICK_DPAD_Y);
     efe:	84 e9       	ldi	r24, 0x94	; 148
     f00:	90 e0       	ldi	r25, 0x00	; 0
     f02:	67 e0       	ldi	r22, 0x07	; 7
     f04:	0e 94 60 0b 	call	0x16c0	; 0x16c0 <sonyPS2_joystick>
     f08:	e8 2e       	mov	r14, r24
		Cursor_Coordinate(60,30);
     f0a:	8c e3       	ldi	r24, 0x3C	; 60
     f0c:	6e e1       	ldi	r22, 0x1E	; 30
     f0e:	0e 94 16 02 	call	0x42c	; 0x42c <Cursor_Coordinate>
		Write_Blank(3);
     f12:	83 e0       	ldi	r24, 0x03	; 3
     f14:	0e 94 8e 06 	call	0xd1c	; 0xd1c <Write_Blank>
		Cursor_Coordinate(60,30);
     f18:	8c e3       	ldi	r24, 0x3C	; 60
     f1a:	6e e1       	ldi	r22, 0x1E	; 30
     f1c:	0e 94 16 02 	call	0x42c	; 0x42c <Cursor_Coordinate>
		rprintfNum(10, 4, true, ' ', dpad_y);
     f20:	ff 24       	eor	r15, r15
     f22:	00 e0       	ldi	r16, 0x00	; 0
     f24:	10 e0       	ldi	r17, 0x00	; 0
     f26:	8a e0       	ldi	r24, 0x0A	; 10
     f28:	64 e0       	ldi	r22, 0x04	; 4
     f2a:	4f ef       	ldi	r20, 0xFF	; 255
     f2c:	20 e2       	ldi	r18, 0x20	; 32
     f2e:	0e 94 f2 14 	call	0x29e4	; 0x29e4 <rprintfNum>
	}

	if(sonyPS2_setAnalogMode(&controller1))
     f32:	84 e9       	ldi	r24, 0x94	; 148
     f34:	90 e0       	ldi	r25, 0x00	; 0
     f36:	0e 94 af 0c 	call	0x195e	; 0x195e <sonyPS2_setAnalogMode>
     f3a:	88 23       	and	r24, r24
     f3c:	d1 f0       	breq	.+52     	; 0xf72 <appControl+0x22e>
	{
		char dpad_x = sonyPS2_joystick(&controller1, PS2_STICK_DPAD_X);
     f3e:	84 e9       	ldi	r24, 0x94	; 148
     f40:	90 e0       	ldi	r25, 0x00	; 0
     f42:	66 e0       	ldi	r22, 0x06	; 6
     f44:	0e 94 60 0b 	call	0x16c0	; 0x16c0 <sonyPS2_joystick>
     f48:	e8 2e       	mov	r14, r24
		Cursor_Coordinate(60,40);
     f4a:	8c e3       	ldi	r24, 0x3C	; 60
     f4c:	68 e2       	ldi	r22, 0x28	; 40
     f4e:	0e 94 16 02 	call	0x42c	; 0x42c <Cursor_Coordinate>
		Write_Blank(3);
     f52:	83 e0       	ldi	r24, 0x03	; 3
     f54:	0e 94 8e 06 	call	0xd1c	; 0xd1c <Write_Blank>
		Cursor_Coordinate(60,40);
     f58:	8c e3       	ldi	r24, 0x3C	; 60
     f5a:	68 e2       	ldi	r22, 0x28	; 40
     f5c:	0e 94 16 02 	call	0x42c	; 0x42c <Cursor_Coordinate>
		rprintfNum(10, 4, true, ' ', dpad_x);
     f60:	ff 24       	eor	r15, r15
     f62:	00 e0       	ldi	r16, 0x00	; 0
     f64:	10 e0       	ldi	r17, 0x00	; 0
     f66:	8a e0       	ldi	r24, 0x0A	; 10
     f68:	64 e0       	ldi	r22, 0x04	; 4
     f6a:	4f ef       	ldi	r20, 0xFF	; 255
     f6c:	20 e2       	ldi	r18, 0x20	; 32
     f6e:	0e 94 f2 14 	call	0x29e4	; 0x29e4 <rprintfNum>
	}
	if(sonyPS2_setAnalogMode(&controller1))
     f72:	84 e9       	ldi	r24, 0x94	; 148
     f74:	90 e0       	ldi	r25, 0x00	; 0
     f76:	0e 94 af 0c 	call	0x195e	; 0x195e <sonyPS2_setAnalogMode>
     f7a:	88 23       	and	r24, r24
     f7c:	d1 f0       	breq	.+52     	; 0xfb2 <appControl+0x26e>
	{
		char left_y = sonyPS2_joystick(&controller1, PS2_STICK_LEFT_Y);
     f7e:	84 e9       	ldi	r24, 0x94	; 148
     f80:	90 e0       	ldi	r25, 0x00	; 0
     f82:	65 e0       	ldi	r22, 0x05	; 5
     f84:	0e 94 60 0b 	call	0x16c0	; 0x16c0 <sonyPS2_joystick>
     f88:	e8 2e       	mov	r14, r24
		Cursor_Coordinate(60,50);
     f8a:	8c e3       	ldi	r24, 0x3C	; 60
     f8c:	62 e3       	ldi	r22, 0x32	; 50
     f8e:	0e 94 16 02 	call	0x42c	; 0x42c <Cursor_Coordinate>
		Write_Blank(4);
     f92:	84 e0       	ldi	r24, 0x04	; 4
     f94:	0e 94 8e 06 	call	0xd1c	; 0xd1c <Write_Blank>
		Cursor_Coordinate(60,50);
     f98:	8c e3       	ldi	r24, 0x3C	; 60
     f9a:	62 e3       	ldi	r22, 0x32	; 50
     f9c:	0e 94 16 02 	call	0x42c	; 0x42c <Cursor_Coordinate>
		rprintfNum(10, 4, true, ' ', left_y);
     fa0:	ff 24       	eor	r15, r15
     fa2:	00 e0       	ldi	r16, 0x00	; 0
     fa4:	10 e0       	ldi	r17, 0x00	; 0
     fa6:	8a e0       	ldi	r24, 0x0A	; 10
     fa8:	64 e0       	ldi	r22, 0x04	; 4
     faa:	4f ef       	ldi	r20, 0xFF	; 255
     fac:	20 e2       	ldi	r18, 0x20	; 32
     fae:	0e 94 f2 14 	call	0x29e4	; 0x29e4 <rprintfNum>
     fb2:	80 e0       	ldi	r24, 0x00	; 0
     fb4:	90 e0       	ldi	r25, 0x00	; 0
     fb6:	01 97       	sbiw	r24, 0x01	; 1
     fb8:	f1 f7       	brne	.-4      	; 0xfb6 <appControl+0x272>
	}
	Wait(1);
	if(sonyPS2_setAnalogMode(&controller1))
     fba:	84 e9       	ldi	r24, 0x94	; 148
     fbc:	90 e0       	ldi	r25, 0x00	; 0
     fbe:	0e 94 af 0c 	call	0x195e	; 0x195e <sonyPS2_setAnalogMode>
     fc2:	88 23       	and	r24, r24
     fc4:	d1 f0       	breq	.+52     	; 0xffa <appControl+0x2b6>
	{
		char left_x = sonyPS2_joystick(&controller1, PS2_STICK_LEFT_X);
     fc6:	84 e9       	ldi	r24, 0x94	; 148
     fc8:	90 e0       	ldi	r25, 0x00	; 0
     fca:	64 e0       	ldi	r22, 0x04	; 4
     fcc:	0e 94 60 0b 	call	0x16c0	; 0x16c0 <sonyPS2_joystick>
     fd0:	e8 2e       	mov	r14, r24
		Cursor_Coordinate(60,60);
     fd2:	8c e3       	ldi	r24, 0x3C	; 60
     fd4:	6c e3       	ldi	r22, 0x3C	; 60
     fd6:	0e 94 16 02 	call	0x42c	; 0x42c <Cursor_Coordinate>
		Write_Blank(4);
     fda:	84 e0       	ldi	r24, 0x04	; 4
     fdc:	0e 94 8e 06 	call	0xd1c	; 0xd1c <Write_Blank>
		//sonyPS_setRumble(&controller1, left_x, true);
		Cursor_Coordinate(60,60);
     fe0:	8c e3       	ldi	r24, 0x3C	; 60
     fe2:	6c e3       	ldi	r22, 0x3C	; 60
     fe4:	0e 94 16 02 	call	0x42c	; 0x42c <Cursor_Coordinate>
		rprintfNum(10, 4, true, ' ', left_x);
     fe8:	ff 24       	eor	r15, r15
     fea:	00 e0       	ldi	r16, 0x00	; 0
     fec:	10 e0       	ldi	r17, 0x00	; 0
     fee:	8a e0       	ldi	r24, 0x0A	; 10
     ff0:	64 e0       	ldi	r22, 0x04	; 4
     ff2:	4f ef       	ldi	r20, 0xFF	; 255
     ff4:	20 e2       	ldi	r18, 0x20	; 32
     ff6:	0e 94 f2 14 	call	0x29e4	; 0x29e4 <rprintfNum>
	}
	

	if(sonyPS2_setAnalogMode(&controller1))
     ffa:	84 e9       	ldi	r24, 0x94	; 148
     ffc:	90 e0       	ldi	r25, 0x00	; 0
     ffe:	0e 94 af 0c 	call	0x195e	; 0x195e <sonyPS2_setAnalogMode>
    1002:	88 23       	and	r24, r24
    1004:	d1 f0       	breq	.+52     	; 0x103a <appControl+0x2f6>
	{
		char right_y = sonyPS2_joystick(&controller1, PS2_STICK_RIGHT_Y);
    1006:	84 e9       	ldi	r24, 0x94	; 148
    1008:	90 e0       	ldi	r25, 0x00	; 0
    100a:	63 e0       	ldi	r22, 0x03	; 3
    100c:	0e 94 60 0b 	call	0x16c0	; 0x16c0 <sonyPS2_joystick>
    1010:	e8 2e       	mov	r14, r24
		Cursor_Coordinate(60,70);
    1012:	8c e3       	ldi	r24, 0x3C	; 60
    1014:	66 e4       	ldi	r22, 0x46	; 70
    1016:	0e 94 16 02 	call	0x42c	; 0x42c <Cursor_Coordinate>
		Write_Blank(4);
    101a:	84 e0       	ldi	r24, 0x04	; 4
    101c:	0e 94 8e 06 	call	0xd1c	; 0xd1c <Write_Blank>
		Cursor_Coordinate(60,70);
    1020:	8c e3       	ldi	r24, 0x3C	; 60
    1022:	66 e4       	ldi	r22, 0x46	; 70
    1024:	0e 94 16 02 	call	0x42c	; 0x42c <Cursor_Coordinate>
		rprintfNum(10, 4, true, ' ', right_y);
    1028:	ff 24       	eor	r15, r15
    102a:	00 e0       	ldi	r16, 0x00	; 0
    102c:	10 e0       	ldi	r17, 0x00	; 0
    102e:	8a e0       	ldi	r24, 0x0A	; 10
    1030:	64 e0       	ldi	r22, 0x04	; 4
    1032:	4f ef       	ldi	r20, 0xFF	; 255
    1034:	20 e2       	ldi	r18, 0x20	; 32
    1036:	0e 94 f2 14 	call	0x29e4	; 0x29e4 <rprintfNum>
	}
	
	if(sonyPS2_setAnalogMode(&controller1))
    103a:	84 e9       	ldi	r24, 0x94	; 148
    103c:	90 e0       	ldi	r25, 0x00	; 0
    103e:	0e 94 af 0c 	call	0x195e	; 0x195e <sonyPS2_setAnalogMode>
    1042:	88 23       	and	r24, r24
    1044:	d1 f0       	breq	.+52     	; 0x107a <appControl+0x336>
	{
		char right_x = sonyPS2_joystick(&controller1, PS2_STICK_RIGHT_X);
    1046:	84 e9       	ldi	r24, 0x94	; 148
    1048:	90 e0       	ldi	r25, 0x00	; 0
    104a:	62 e0       	ldi	r22, 0x02	; 2
    104c:	0e 94 60 0b 	call	0x16c0	; 0x16c0 <sonyPS2_joystick>
    1050:	e8 2e       	mov	r14, r24
		Cursor_Coordinate(60,80);
    1052:	8c e3       	ldi	r24, 0x3C	; 60
    1054:	60 e5       	ldi	r22, 0x50	; 80
    1056:	0e 94 16 02 	call	0x42c	; 0x42c <Cursor_Coordinate>
		Write_Blank(4);
    105a:	84 e0       	ldi	r24, 0x04	; 4
    105c:	0e 94 8e 06 	call	0xd1c	; 0xd1c <Write_Blank>
		Cursor_Coordinate(60,80);
    1060:	8c e3       	ldi	r24, 0x3C	; 60
    1062:	60 e5       	ldi	r22, 0x50	; 80
    1064:	0e 94 16 02 	call	0x42c	; 0x42c <Cursor_Coordinate>
		rprintfNum(10, 4, true, ' ', right_x);
    1068:	ff 24       	eor	r15, r15
    106a:	00 e0       	ldi	r16, 0x00	; 0
    106c:	10 e0       	ldi	r17, 0x00	; 0
    106e:	8a e0       	ldi	r24, 0x0A	; 10
    1070:	64 e0       	ldi	r22, 0x04	; 4
    1072:	4f ef       	ldi	r20, 0xFF	; 255
    1074:	20 e2       	ldi	r18, 0x20	; 32
    1076:	0e 94 f2 14 	call	0x29e4	; 0x29e4 <rprintfNum>
	}
	if(sonyPS2_buttonHeld(&controller1, PS2_BTN_R1))
    107a:	84 e9       	ldi	r24, 0x94	; 148
    107c:	90 e0       	ldi	r25, 0x00	; 0
    107e:	60 e0       	ldi	r22, 0x00	; 0
    1080:	78 e0       	ldi	r23, 0x08	; 8
    1082:	0e 94 c5 0b 	call	0x178a	; 0x178a <sonyPS2_buttonHeld>
    1086:	88 23       	and	r24, r24
    1088:	59 f0       	breq	.+22     	; 0x10a0 <appControl+0x35c>
    108a:	8f ec       	ldi	r24, 0xCF	; 207
    108c:	90 e0       	ldi	r25, 0x00	; 0
    108e:	6f ef       	ldi	r22, 0xFF	; 255
    1090:	0e 94 ed 12 	call	0x25da	; 0x25da <LED_set>
	{
		LED_on(&boardLED1);
		pwmSetDutyCycle(B3, 6);
    1094:	83 e8       	ldi	r24, 0x83	; 131
    1096:	90 e0       	ldi	r25, 0x00	; 0
    1098:	66 e0       	ldi	r22, 0x06	; 6
    109a:	0e 94 54 13 	call	0x26a8	; 0x26a8 <pwmSetDutyCycle>
    109e:	05 c0       	rjmp	.+10     	; 0x10aa <appControl+0x366>
}

static __inline__ void LED_off(LED* led){
	LED_set(led,FALSE);
    10a0:	8f ec       	ldi	r24, 0xCF	; 207
    10a2:	90 e0       	ldi	r25, 0x00	; 0
    10a4:	60 e0       	ldi	r22, 0x00	; 0
    10a6:	0e 94 ed 12 	call	0x25da	; 0x25da <LED_set>
	}
	else
	{
		LED_off(&boardLED1);
	}
	if(sonyPS2_buttonHeld(&controller1, PS2_BTN_L1))
    10aa:	84 e9       	ldi	r24, 0x94	; 148
    10ac:	90 e0       	ldi	r25, 0x00	; 0
    10ae:	60 e0       	ldi	r22, 0x00	; 0
    10b0:	74 e0       	ldi	r23, 0x04	; 4
    10b2:	0e 94 c5 0b 	call	0x178a	; 0x178a <sonyPS2_buttonHeld>
    10b6:	88 23       	and	r24, r24
    10b8:	59 f0       	breq	.+22     	; 0x10d0 <appControl+0x38c>


void LED_set(LED* led,	boolean value);

static __inline__ void LED_on(LED* led){
	LED_set(led,TRUE);
    10ba:	82 ed       	ldi	r24, 0xD2	; 210
    10bc:	90 e0       	ldi	r25, 0x00	; 0
    10be:	6f ef       	ldi	r22, 0xFF	; 255
    10c0:	0e 94 ed 12 	call	0x25da	; 0x25da <LED_set>
	{
		LED_on(&boardLED2);
		pwmSetDutyCycle(B3, 12);
    10c4:	83 e8       	ldi	r24, 0x83	; 131
    10c6:	90 e0       	ldi	r25, 0x00	; 0
    10c8:	6c e0       	ldi	r22, 0x0C	; 12
    10ca:	0e 94 54 13 	call	0x26a8	; 0x26a8 <pwmSetDutyCycle>
    10ce:	05 c0       	rjmp	.+10     	; 0x10da <appControl+0x396>
}

static __inline__ void LED_off(LED* led){
	LED_set(led,FALSE);
    10d0:	82 ed       	ldi	r24, 0xD2	; 210
    10d2:	90 e0       	ldi	r25, 0x00	; 0
    10d4:	60 e0       	ldi	r22, 0x00	; 0
    10d6:	0e 94 ed 12 	call	0x25da	; 0x25da <LED_set>
	}
	else
	{
		LED_off(&boardLED2);
	}
	if(sonyPS2_buttonHeld(&controller1, PS2_BTN_R2))
    10da:	84 e9       	ldi	r24, 0x94	; 148
    10dc:	90 e0       	ldi	r25, 0x00	; 0
    10de:	60 e0       	ldi	r22, 0x00	; 0
    10e0:	72 e0       	ldi	r23, 0x02	; 2
    10e2:	0e 94 c5 0b 	call	0x178a	; 0x178a <sonyPS2_buttonHeld>
    10e6:	88 23       	and	r24, r24
    10e8:	21 f0       	breq	.+8      	; 0x10f2 <appControl+0x3ae>


void LED_set(LED* led,	boolean value);

static __inline__ void LED_on(LED* led){
	LED_set(led,TRUE);
    10ea:	85 ed       	ldi	r24, 0xD5	; 213
    10ec:	90 e0       	ldi	r25, 0x00	; 0
    10ee:	6f ef       	ldi	r22, 0xFF	; 255
    10f0:	03 c0       	rjmp	.+6      	; 0x10f8 <appControl+0x3b4>
}

static __inline__ void LED_off(LED* led){
	LED_set(led,FALSE);
    10f2:	85 ed       	ldi	r24, 0xD5	; 213
    10f4:	90 e0       	ldi	r25, 0x00	; 0
    10f6:	60 e0       	ldi	r22, 0x00	; 0
    10f8:	0e 94 ed 12 	call	0x25da	; 0x25da <LED_set>
	}
	else
	{
		LED_off(&boardLED3);
	}
	if(sonyPS2_buttonHeld(&controller1, PS2_BTN_L2))
    10fc:	84 e9       	ldi	r24, 0x94	; 148
    10fe:	90 e0       	ldi	r25, 0x00	; 0
    1100:	60 e0       	ldi	r22, 0x00	; 0
    1102:	71 e0       	ldi	r23, 0x01	; 1
    1104:	0e 94 c5 0b 	call	0x178a	; 0x178a <sonyPS2_buttonHeld>
    1108:	88 23       	and	r24, r24
    110a:	21 f0       	breq	.+8      	; 0x1114 <appControl+0x3d0>


void LED_set(LED* led,	boolean value);

static __inline__ void LED_on(LED* led){
	LED_set(led,TRUE);
    110c:	88 ed       	ldi	r24, 0xD8	; 216
    110e:	90 e0       	ldi	r25, 0x00	; 0
    1110:	6f ef       	ldi	r22, 0xFF	; 255
    1112:	03 c0       	rjmp	.+6      	; 0x111a <appControl+0x3d6>
}

static __inline__ void LED_off(LED* led){
	LED_set(led,FALSE);
    1114:	88 ed       	ldi	r24, 0xD8	; 216
    1116:	90 e0       	ldi	r25, 0x00	; 0
    1118:	60 e0       	ldi	r22, 0x00	; 0
    111a:	0e 94 ed 12 	call	0x25da	; 0x25da <LED_set>
	}
	else
	{
		LED_off(&boardLED4);
	}
	if(sonyPS2_buttonHeld(&controller1, PS2_BTN_TRIANGLE))
    111e:	84 e9       	ldi	r24, 0x94	; 148
    1120:	90 e0       	ldi	r25, 0x00	; 0
    1122:	60 e0       	ldi	r22, 0x00	; 0
    1124:	70 e1       	ldi	r23, 0x10	; 16
    1126:	0e 94 c5 0b 	call	0x178a	; 0x178a <sonyPS2_buttonHeld>
    112a:	88 23       	and	r24, r24
    112c:	21 f0       	breq	.+8      	; 0x1136 <appControl+0x3f2>


void LED_set(LED* led,	boolean value);

static __inline__ void LED_on(LED* led){
	LED_set(led,TRUE);
    112e:	8b ed       	ldi	r24, 0xDB	; 219
    1130:	90 e0       	ldi	r25, 0x00	; 0
    1132:	6f ef       	ldi	r22, 0xFF	; 255
    1134:	03 c0       	rjmp	.+6      	; 0x113c <appControl+0x3f8>
}

static __inline__ void LED_off(LED* led){
	LED_set(led,FALSE);
    1136:	8b ed       	ldi	r24, 0xDB	; 219
    1138:	90 e0       	ldi	r25, 0x00	; 0
    113a:	60 e0       	ldi	r22, 0x00	; 0
    113c:	0e 94 ed 12 	call	0x25da	; 0x25da <LED_set>
	}
	else
	{
		LED_off(&boardLED5);
	}
	if(sonyPS2_buttonHeld(&controller1, PS2_BTN_X))
    1140:	84 e9       	ldi	r24, 0x94	; 148
    1142:	90 e0       	ldi	r25, 0x00	; 0
    1144:	60 e0       	ldi	r22, 0x00	; 0
    1146:	70 e4       	ldi	r23, 0x40	; 64
    1148:	0e 94 c5 0b 	call	0x178a	; 0x178a <sonyPS2_buttonHeld>
    114c:	88 23       	and	r24, r24
    114e:	21 f0       	breq	.+8      	; 0x1158 <appControl+0x414>


void LED_set(LED* led,	boolean value);

static __inline__ void LED_on(LED* led){
	LED_set(led,TRUE);
    1150:	8e ed       	ldi	r24, 0xDE	; 222
    1152:	90 e0       	ldi	r25, 0x00	; 0
    1154:	6f ef       	ldi	r22, 0xFF	; 255
    1156:	03 c0       	rjmp	.+6      	; 0x115e <appControl+0x41a>
}

static __inline__ void LED_off(LED* led){
	LED_set(led,FALSE);
    1158:	8e ed       	ldi	r24, 0xDE	; 222
    115a:	90 e0       	ldi	r25, 0x00	; 0
    115c:	60 e0       	ldi	r22, 0x00	; 0
    115e:	0e 94 ed 12 	call	0x25da	; 0x25da <LED_set>
	}
	else
	{
		LED_off(&boardLED6);
	}
	if(sonyPS2_buttonHeld(&controller1, PS2_DPAD_UP))
    1162:	84 e9       	ldi	r24, 0x94	; 148
    1164:	90 e0       	ldi	r25, 0x00	; 0
    1166:	60 e1       	ldi	r22, 0x10	; 16
    1168:	70 e0       	ldi	r23, 0x00	; 0
    116a:	0e 94 c5 0b 	call	0x178a	; 0x178a <sonyPS2_buttonHeld>
    116e:	88 23       	and	r24, r24
    1170:	39 f1       	breq	.+78     	; 0x11c0 <appControl+0x47c>


void LED_set(LED* led,	boolean value);

static __inline__ void LED_on(LED* led){
	LED_set(led,TRUE);
    1172:	81 ee       	ldi	r24, 0xE1	; 225
    1174:	90 e0       	ldi	r25, 0x00	; 0
    1176:	6f ef       	ldi	r22, 0xFF	; 255
    1178:	26 c0       	rjmp	.+76     	; 0x11c6 <appControl+0x482>
}

static __inline__ void LED_off(LED* led){
	LED_set(led,FALSE);
    117a:	8c ec       	ldi	r24, 0xCC	; 204
    117c:	90 e0       	ldi	r25, 0x00	; 0
    117e:	60 e0       	ldi	r22, 0x00	; 0
    1180:	0e 94 ed 12 	call	0x25da	; 0x25da <LED_set>


		
return 200000; // wait for 1 second before calling me again. 1000000us = 1
//second
}
    1184:	8f ec       	ldi	r24, 0xCF	; 207
    1186:	90 e0       	ldi	r25, 0x00	; 0
    1188:	60 e0       	ldi	r22, 0x00	; 0
    118a:	0e 94 ed 12 	call	0x25da	; 0x25da <LED_set>
    118e:	82 ed       	ldi	r24, 0xD2	; 210
    1190:	90 e0       	ldi	r25, 0x00	; 0
    1192:	60 e0       	ldi	r22, 0x00	; 0
    1194:	0e 94 ed 12 	call	0x25da	; 0x25da <LED_set>
    1198:	85 ed       	ldi	r24, 0xD5	; 213
    119a:	90 e0       	ldi	r25, 0x00	; 0
    119c:	60 e0       	ldi	r22, 0x00	; 0
    119e:	0e 94 ed 12 	call	0x25da	; 0x25da <LED_set>
    11a2:	88 ed       	ldi	r24, 0xD8	; 216
    11a4:	90 e0       	ldi	r25, 0x00	; 0
    11a6:	60 e0       	ldi	r22, 0x00	; 0
    11a8:	0e 94 ed 12 	call	0x25da	; 0x25da <LED_set>
    11ac:	8b ed       	ldi	r24, 0xDB	; 219
    11ae:	90 e0       	ldi	r25, 0x00	; 0
    11b0:	60 e0       	ldi	r22, 0x00	; 0
    11b2:	0e 94 ed 12 	call	0x25da	; 0x25da <LED_set>
    11b6:	8e ed       	ldi	r24, 0xDE	; 222
    11b8:	90 e0       	ldi	r25, 0x00	; 0
    11ba:	60 e0       	ldi	r22, 0x00	; 0
    11bc:	0e 94 ed 12 	call	0x25da	; 0x25da <LED_set>
    11c0:	81 ee       	ldi	r24, 0xE1	; 225
    11c2:	90 e0       	ldi	r25, 0x00	; 0
    11c4:	60 e0       	ldi	r22, 0x00	; 0
    11c6:	0e 94 ed 12 	call	0x25da	; 0x25da <LED_set>
    11ca:	60 e4       	ldi	r22, 0x40	; 64
    11cc:	7d e0       	ldi	r23, 0x0D	; 13
    11ce:	83 e0       	ldi	r24, 0x03	; 3
    11d0:	90 e0       	ldi	r25, 0x00	; 0
    11d2:	1f 91       	pop	r17
    11d4:	0f 91       	pop	r16
    11d6:	ff 90       	pop	r15
    11d8:	ef 90       	pop	r14
    11da:	df 90       	pop	r13
    11dc:	cf 90       	pop	r12
    11de:	bf 90       	pop	r11
    11e0:	af 90       	pop	r10
    11e2:	9f 90       	pop	r9
    11e4:	8f 90       	pop	r8
    11e6:	7f 90       	pop	r7
    11e8:	6f 90       	pop	r6
    11ea:	5f 90       	pop	r5
    11ec:	4f 90       	pop	r4
    11ee:	3f 90       	pop	r3
    11f0:	08 95       	ret

000011f2 <__vector_13>:
{
	uartTransmitService(&Uarts[0]);
}

UART_INTERRUPT_HANDLER(USART0_RX_vect)
{
    11f2:	1f 92       	push	r1
    11f4:	0f 92       	push	r0
    11f6:	0f b6       	in	r0, 0x3f	; 63
    11f8:	0f 92       	push	r0
    11fa:	11 24       	eor	r1, r1
    11fc:	2f 93       	push	r18
    11fe:	3f 93       	push	r19
    1200:	4f 93       	push	r20
    1202:	5f 93       	push	r21
    1204:	6f 93       	push	r22
    1206:	7f 93       	push	r23
    1208:	8f 93       	push	r24
    120a:	9f 93       	push	r25
    120c:	af 93       	push	r26
    120e:	bf 93       	push	r27
    1210:	ef 93       	push	r30
    1212:	ff 93       	push	r31
	uartReceiveService(&Uarts[0]);
    1214:	e0 91 8c 00 	lds	r30, 0x008C
    1218:	f0 91 8d 00 	lds	r31, 0x008D
    121c:	60 81       	ld	r22, Z
    121e:	8c e6       	ldi	r24, 0x6C	; 108
    1220:	90 e0       	ldi	r25, 0x00	; 0
    1222:	0e 94 90 10 	call	0x2120	; 0x2120 <__uartReceiveService>
}
    1226:	ff 91       	pop	r31
    1228:	ef 91       	pop	r30
    122a:	bf 91       	pop	r27
    122c:	af 91       	pop	r26
    122e:	9f 91       	pop	r25
    1230:	8f 91       	pop	r24
    1232:	7f 91       	pop	r23
    1234:	6f 91       	pop	r22
    1236:	5f 91       	pop	r21
    1238:	4f 91       	pop	r20
    123a:	3f 91       	pop	r19
    123c:	2f 91       	pop	r18
    123e:	0f 90       	pop	r0
    1240:	0f be       	out	0x3f, r0	; 63
    1242:	0f 90       	pop	r0
    1244:	1f 90       	pop	r1
    1246:	18 95       	reti

00001248 <__vector_15>:
#endif
#ifndef USART0_RX_vect
# error Uart0 Rx complete vector undefined
#endif
UART_INTERRUPT_HANDLER(USART0_TX_vect)
{
    1248:	1f 92       	push	r1
    124a:	0f 92       	push	r0
    124c:	0f b6       	in	r0, 0x3f	; 63
    124e:	0f 92       	push	r0
    1250:	11 24       	eor	r1, r1
    1252:	2f 93       	push	r18
    1254:	3f 93       	push	r19
    1256:	4f 93       	push	r20
    1258:	5f 93       	push	r21
    125a:	6f 93       	push	r22
    125c:	7f 93       	push	r23
    125e:	8f 93       	push	r24
    1260:	9f 93       	push	r25
    1262:	af 93       	push	r26
    1264:	bf 93       	push	r27
    1266:	ef 93       	push	r30
    1268:	ff 93       	push	r31
	uartTransmitService(&Uarts[0]);
    126a:	8c e6       	ldi	r24, 0x6C	; 108
    126c:	90 e0       	ldi	r25, 0x00	; 0
    126e:	0e 94 5d 10 	call	0x20ba	; 0x20ba <__uartTransmitService>
}
    1272:	ff 91       	pop	r31
    1274:	ef 91       	pop	r30
    1276:	bf 91       	pop	r27
    1278:	af 91       	pop	r26
    127a:	9f 91       	pop	r25
    127c:	8f 91       	pop	r24
    127e:	7f 91       	pop	r23
    1280:	6f 91       	pop	r22
    1282:	5f 91       	pop	r21
    1284:	4f 91       	pop	r20
    1286:	3f 91       	pop	r19
    1288:	2f 91       	pop	r18
    128a:	0f 90       	pop	r0
    128c:	0f be       	out	0x3f, r0	; 63
    128e:	0f 90       	pop	r0
    1290:	1f 90       	pop	r1
    1292:	18 95       	reti

00001294 <uart0GetByte>:
// ------------------ UART 0 --------------------------------
MAKE_WRITER(uart0SendByte){
	return _uartSendByte(&Uarts[0]._uart_,byte);
}
MAKE_READER(uart0GetByte){
	return __uartGetByte(&Uarts[0]._uart_);
    1294:	8c e6       	ldi	r24, 0x6C	; 108
    1296:	90 e0       	ldi	r25, 0x00	; 0
    1298:	0e 94 37 10 	call	0x206e	; 0x206e <__uartGetByte>
}
    129c:	08 95       	ret

0000129e <uart0SendByte>:
#endif


#if defined(UBRR0) || defined(UBRRL)|| defined(UBRR0L)
// ------------------ UART 0 --------------------------------
MAKE_WRITER(uart0SendByte){
    129e:	68 2f       	mov	r22, r24
	return _uartSendByte(&Uarts[0]._uart_,byte);
    12a0:	8c e6       	ldi	r24, 0x6C	; 108
    12a2:	90 e0       	ldi	r25, 0x00	; 0
    12a4:	0e 94 e6 0f 	call	0x1fcc	; 0x1fcc <_uartSendByte>
}
    12a8:	08 95       	ret

000012aa <__vector_4>:
	TIMER_INTERRUPT_HANDLER(TIMER2_COMP_vect){
		__timer_compareService(TIMER2_COMPAREA);
	}
	#else
	//! Interrupt handler for tcnt2 compare interrupt
	TIMER_INTERRUPT_HANDLER(TIMER2_COMP_vect){
    12aa:	1f 92       	push	r1
    12ac:	0f 92       	push	r0
    12ae:	0f b6       	in	r0, 0x3f	; 63
    12b0:	0f 92       	push	r0
    12b2:	11 24       	eor	r1, r1
    12b4:	2f 93       	push	r18
    12b6:	3f 93       	push	r19
    12b8:	4f 93       	push	r20
    12ba:	5f 93       	push	r21
    12bc:	6f 93       	push	r22
    12be:	7f 93       	push	r23
    12c0:	8f 93       	push	r24
    12c2:	9f 93       	push	r25
    12c4:	af 93       	push	r26
    12c6:	bf 93       	push	r27
    12c8:	ef 93       	push	r30
    12ca:	ff 93       	push	r31
		__timer_compareService(TIMER2_COMPARE);
    12cc:	8e ef       	ldi	r24, 0xFE	; 254
    12ce:	90 e0       	ldi	r25, 0x00	; 0
    12d0:	0e 94 dd 19 	call	0x33ba	; 0x33ba <__timer_compareService>
	}
    12d4:	ff 91       	pop	r31
    12d6:	ef 91       	pop	r30
    12d8:	bf 91       	pop	r27
    12da:	af 91       	pop	r26
    12dc:	9f 91       	pop	r25
    12de:	8f 91       	pop	r24
    12e0:	7f 91       	pop	r23
    12e2:	6f 91       	pop	r22
    12e4:	5f 91       	pop	r21
    12e6:	4f 91       	pop	r20
    12e8:	3f 91       	pop	r19
    12ea:	2f 91       	pop	r18
    12ec:	0f 90       	pop	r0
    12ee:	0f be       	out	0x3f, r0	; 63
    12f0:	0f 90       	pop	r0
    12f2:	1f 90       	pop	r1
    12f4:	18 95       	reti

000012f6 <__vector_8>:
	}
	#endif // TIMER1_COMPA_vect

	#ifdef TIMER1_COMPB_vect
	//! Interrupt handler for tcnt0 compare interrupt
	TIMER_INTERRUPT_HANDLER(TIMER1_COMPB_vect){
    12f6:	1f 92       	push	r1
    12f8:	0f 92       	push	r0
    12fa:	0f b6       	in	r0, 0x3f	; 63
    12fc:	0f 92       	push	r0
    12fe:	11 24       	eor	r1, r1
    1300:	2f 93       	push	r18
    1302:	3f 93       	push	r19
    1304:	4f 93       	push	r20
    1306:	5f 93       	push	r21
    1308:	6f 93       	push	r22
    130a:	7f 93       	push	r23
    130c:	8f 93       	push	r24
    130e:	9f 93       	push	r25
    1310:	af 93       	push	r26
    1312:	bf 93       	push	r27
    1314:	ef 93       	push	r30
    1316:	ff 93       	push	r31
		__timer_compareService(TIMER1_COMPAREB);
    1318:	8e ee       	ldi	r24, 0xEE	; 238
    131a:	90 e0       	ldi	r25, 0x00	; 0
    131c:	0e 94 dd 19 	call	0x33ba	; 0x33ba <__timer_compareService>
	}
    1320:	ff 91       	pop	r31
    1322:	ef 91       	pop	r30
    1324:	bf 91       	pop	r27
    1326:	af 91       	pop	r26
    1328:	9f 91       	pop	r25
    132a:	8f 91       	pop	r24
    132c:	7f 91       	pop	r23
    132e:	6f 91       	pop	r22
    1330:	5f 91       	pop	r21
    1332:	4f 91       	pop	r20
    1334:	3f 91       	pop	r19
    1336:	2f 91       	pop	r18
    1338:	0f 90       	pop	r0
    133a:	0f be       	out	0x3f, r0	; 63
    133c:	0f 90       	pop	r0
    133e:	1f 90       	pop	r1
    1340:	18 95       	reti

00001342 <__vector_7>:
	}
	#endif

	#ifdef TIMER1_COMPA_vect
	//! Interrupt handler for tcnt0 compare interrupt
	TIMER_INTERRUPT_HANDLER(TIMER1_COMPA_vect){
    1342:	1f 92       	push	r1
    1344:	0f 92       	push	r0
    1346:	0f b6       	in	r0, 0x3f	; 63
    1348:	0f 92       	push	r0
    134a:	11 24       	eor	r1, r1
    134c:	2f 93       	push	r18
    134e:	3f 93       	push	r19
    1350:	4f 93       	push	r20
    1352:	5f 93       	push	r21
    1354:	6f 93       	push	r22
    1356:	7f 93       	push	r23
    1358:	8f 93       	push	r24
    135a:	9f 93       	push	r25
    135c:	af 93       	push	r26
    135e:	bf 93       	push	r27
    1360:	ef 93       	push	r30
    1362:	ff 93       	push	r31
		__timer_compareService(TIMER1_COMPAREA);
    1364:	8e ed       	ldi	r24, 0xDE	; 222
    1366:	90 e0       	ldi	r25, 0x00	; 0
    1368:	0e 94 dd 19 	call	0x33ba	; 0x33ba <__timer_compareService>
	}
    136c:	ff 91       	pop	r31
    136e:	ef 91       	pop	r30
    1370:	bf 91       	pop	r27
    1372:	af 91       	pop	r26
    1374:	9f 91       	pop	r25
    1376:	8f 91       	pop	r24
    1378:	7f 91       	pop	r23
    137a:	6f 91       	pop	r22
    137c:	5f 91       	pop	r21
    137e:	4f 91       	pop	r20
    1380:	3f 91       	pop	r19
    1382:	2f 91       	pop	r18
    1384:	0f 90       	pop	r0
    1386:	0f be       	out	0x3f, r0	; 63
    1388:	0f 90       	pop	r0
    138a:	1f 90       	pop	r1
    138c:	18 95       	reti

0000138e <__vector_10>:
	TIMER_INTERRUPT_HANDLER(TIMER0_COMP_vect){
		__timer_compareService(TIMER0_COMPAREA);
	}
	#else
	// Interrupt handler for tcnt0 compare interrupt
	TIMER_INTERRUPT_HANDLER(TIMER0_COMP_vect){
    138e:	1f 92       	push	r1
    1390:	0f 92       	push	r0
    1392:	0f b6       	in	r0, 0x3f	; 63
    1394:	0f 92       	push	r0
    1396:	11 24       	eor	r1, r1
    1398:	2f 93       	push	r18
    139a:	3f 93       	push	r19
    139c:	4f 93       	push	r20
    139e:	5f 93       	push	r21
    13a0:	6f 93       	push	r22
    13a2:	7f 93       	push	r23
    13a4:	8f 93       	push	r24
    13a6:	9f 93       	push	r25
    13a8:	af 93       	push	r26
    13aa:	bf 93       	push	r27
    13ac:	ef 93       	push	r30
    13ae:	ff 93       	push	r31
		__timer_compareService(TIMER0_COMPARE);
    13b0:	8e ec       	ldi	r24, 0xCE	; 206
    13b2:	90 e0       	ldi	r25, 0x00	; 0
    13b4:	0e 94 dd 19 	call	0x33ba	; 0x33ba <__timer_compareService>
	}
    13b8:	ff 91       	pop	r31
    13ba:	ef 91       	pop	r30
    13bc:	bf 91       	pop	r27
    13be:	af 91       	pop	r26
    13c0:	9f 91       	pop	r25
    13c2:	8f 91       	pop	r24
    13c4:	7f 91       	pop	r23
    13c6:	6f 91       	pop	r22
    13c8:	5f 91       	pop	r21
    13ca:	4f 91       	pop	r20
    13cc:	3f 91       	pop	r19
    13ce:	2f 91       	pop	r18
    13d0:	0f 90       	pop	r0
    13d2:	0f be       	out	0x3f, r0	; 63
    13d4:	0f 90       	pop	r0
    13d6:	1f 90       	pop	r1
    13d8:	18 95       	reti

000013da <__vector_5>:

	// -------------- Timer2 vectors --------------------------------------------

	#ifdef TIMER2_OVF_vect
	//! Interrupt handler for tcnt2 overflow interrupt
	TIMER_INTERRUPT_HANDLER(TIMER2_OVF_vect){
    13da:	1f 92       	push	r1
    13dc:	0f 92       	push	r0
    13de:	0f b6       	in	r0, 0x3f	; 63
    13e0:	0f 92       	push	r0
    13e2:	11 24       	eor	r1, r1
    13e4:	2f 93       	push	r18
    13e6:	3f 93       	push	r19
    13e8:	4f 93       	push	r20
    13ea:	5f 93       	push	r21
    13ec:	6f 93       	push	r22
    13ee:	7f 93       	push	r23
    13f0:	8f 93       	push	r24
    13f2:	9f 93       	push	r25
    13f4:	af 93       	push	r26
    13f6:	bf 93       	push	r27
    13f8:	ef 93       	push	r30
    13fa:	ff 93       	push	r31
		__timer_overflowService(TIMER2);
    13fc:	86 e6       	ldi	r24, 0x66	; 102
    13fe:	91 e0       	ldi	r25, 0x01	; 1
    1400:	0e 94 bf 19 	call	0x337e	; 0x337e <__timer_overflowService>
	}
    1404:	ff 91       	pop	r31
    1406:	ef 91       	pop	r30
    1408:	bf 91       	pop	r27
    140a:	af 91       	pop	r26
    140c:	9f 91       	pop	r25
    140e:	8f 91       	pop	r24
    1410:	7f 91       	pop	r23
    1412:	6f 91       	pop	r22
    1414:	5f 91       	pop	r21
    1416:	4f 91       	pop	r20
    1418:	3f 91       	pop	r19
    141a:	2f 91       	pop	r18
    141c:	0f 90       	pop	r0
    141e:	0f be       	out	0x3f, r0	; 63
    1420:	0f 90       	pop	r0
    1422:	1f 90       	pop	r1
    1424:	18 95       	reti

00001426 <__vector_9>:

	// -------------- Timer1 vectors --------------------------------------------

	#ifdef TIMER1_OVF_vect
	//! Interrupt handler for tcnt1 overflow interrupt
	TIMER_INTERRUPT_HANDLER(TIMER1_OVF_vect){
    1426:	1f 92       	push	r1
    1428:	0f 92       	push	r0
    142a:	0f b6       	in	r0, 0x3f	; 63
    142c:	0f 92       	push	r0
    142e:	11 24       	eor	r1, r1
    1430:	2f 93       	push	r18
    1432:	3f 93       	push	r19
    1434:	4f 93       	push	r20
    1436:	5f 93       	push	r21
    1438:	6f 93       	push	r22
    143a:	7f 93       	push	r23
    143c:	8f 93       	push	r24
    143e:	9f 93       	push	r25
    1440:	af 93       	push	r26
    1442:	bf 93       	push	r27
    1444:	ef 93       	push	r30
    1446:	ff 93       	push	r31
		__timer_overflowService(TIMER1);
    1448:	8a e3       	ldi	r24, 0x3A	; 58
    144a:	91 e0       	ldi	r25, 0x01	; 1
    144c:	0e 94 bf 19 	call	0x337e	; 0x337e <__timer_overflowService>
	}
    1450:	ff 91       	pop	r31
    1452:	ef 91       	pop	r30
    1454:	bf 91       	pop	r27
    1456:	af 91       	pop	r26
    1458:	9f 91       	pop	r25
    145a:	8f 91       	pop	r24
    145c:	7f 91       	pop	r23
    145e:	6f 91       	pop	r22
    1460:	5f 91       	pop	r21
    1462:	4f 91       	pop	r20
    1464:	3f 91       	pop	r19
    1466:	2f 91       	pop	r18
    1468:	0f 90       	pop	r0
    146a:	0f be       	out	0x3f, r0	; 63
    146c:	0f 90       	pop	r0
    146e:	1f 90       	pop	r1
    1470:	18 95       	reti

00001472 <__vector_11>:
	#define TIMER_INTERRUPT_HANDLER		ISR
	#endif
	// -------------- Timer0 vectors --------------------------------------------
	#ifdef TIMER0_OVF_vect
	// Interrupt handler for tcnt0 overflow interrupt
	TIMER_INTERRUPT_HANDLER(TIMER0_OVF_vect){
    1472:	1f 92       	push	r1
    1474:	0f 92       	push	r0
    1476:	0f b6       	in	r0, 0x3f	; 63
    1478:	0f 92       	push	r0
    147a:	11 24       	eor	r1, r1
    147c:	2f 93       	push	r18
    147e:	3f 93       	push	r19
    1480:	4f 93       	push	r20
    1482:	5f 93       	push	r21
    1484:	6f 93       	push	r22
    1486:	7f 93       	push	r23
    1488:	8f 93       	push	r24
    148a:	9f 93       	push	r25
    148c:	af 93       	push	r26
    148e:	bf 93       	push	r27
    1490:	ef 93       	push	r30
    1492:	ff 93       	push	r31
		__timer_overflowService(TIMER0);
    1494:	8e e0       	ldi	r24, 0x0E	; 14
    1496:	91 e0       	ldi	r25, 0x01	; 1
    1498:	0e 94 bf 19 	call	0x337e	; 0x337e <__timer_overflowService>
	}
    149c:	ff 91       	pop	r31
    149e:	ef 91       	pop	r30
    14a0:	bf 91       	pop	r27
    14a2:	af 91       	pop	r26
    14a4:	9f 91       	pop	r25
    14a6:	8f 91       	pop	r24
    14a8:	7f 91       	pop	r23
    14aa:	6f 91       	pop	r22
    14ac:	5f 91       	pop	r21
    14ae:	4f 91       	pop	r20
    14b0:	3f 91       	pop	r19
    14b2:	2f 91       	pop	r18
    14b4:	0f 90       	pop	r0
    14b6:	0f be       	out	0x3f, r0	; 63
    14b8:	0f 90       	pop	r0
    14ba:	1f 90       	pop	r1
    14bc:	18 95       	reti

000014be <__vector_6>:
	}
	#endif // TIMER1_COMP_vect

	#ifdef TIMER1_CAPT_vect
	// Interrupt handler for tcnt1 capture interrupt
	TIMER_INTERRUPT_HANDLER(TIMER1_CAPT_vect){
    14be:	1f 92       	push	r1
    14c0:	0f 92       	push	r0
    14c2:	0f b6       	in	r0, 0x3f	; 63
    14c4:	0f 92       	push	r0
    14c6:	11 24       	eor	r1, r1
    14c8:	2f 93       	push	r18
    14ca:	3f 93       	push	r19
    14cc:	4f 93       	push	r20
    14ce:	5f 93       	push	r21
    14d0:	6f 93       	push	r22
    14d2:	7f 93       	push	r23
    14d4:	8f 93       	push	r24
    14d6:	9f 93       	push	r25
    14d8:	af 93       	push	r26
    14da:	bf 93       	push	r27
    14dc:	ef 93       	push	r30
    14de:	ff 93       	push	r31
		__timer_captureService(TIMER1);
    14e0:	8a e3       	ldi	r24, 0x3A	; 58
    14e2:	91 e0       	ldi	r25, 0x01	; 1
    14e4:	0e 94 ce 19 	call	0x339c	; 0x339c <__timer_captureService>
	}
    14e8:	ff 91       	pop	r31
    14ea:	ef 91       	pop	r30
    14ec:	bf 91       	pop	r27
    14ee:	af 91       	pop	r26
    14f0:	9f 91       	pop	r25
    14f2:	8f 91       	pop	r24
    14f4:	7f 91       	pop	r23
    14f6:	6f 91       	pop	r22
    14f8:	5f 91       	pop	r21
    14fa:	4f 91       	pop	r20
    14fc:	3f 91       	pop	r19
    14fe:	2f 91       	pop	r18
    1500:	0f 90       	pop	r0
    1502:	0f be       	out	0x3f, r0	; 63
    1504:	0f 90       	pop	r0
    1506:	1f 90       	pop	r1
    1508:	18 95       	reti

0000150a <sonyPS2_isAnalogMode>:
    150a:	fc 01       	movw	r30, r24
    150c:	80 85       	ldd	r24, Z+8	; 0x08
    150e:	83 37       	cpi	r24, 0x73	; 115
    1510:	21 f0       	breq	.+8      	; 0x151a <sonyPS2_isAnalogMode+0x10>
    1512:	89 37       	cpi	r24, 0x79	; 121
    1514:	11 f0       	breq	.+4      	; 0x151a <sonyPS2_isAnalogMode+0x10>
    1516:	80 e0       	ldi	r24, 0x00	; 0
    1518:	08 95       	ret
    151a:	8f ef       	ldi	r24, 0xFF	; 255
    151c:	08 95       	ret

0000151e <sonyPS2_buttonsChanged>:
    151e:	fc 01       	movw	r30, r24
    1520:	22 85       	ldd	r18, Z+10	; 0x0a
    1522:	33 85       	ldd	r19, Z+11	; 0x0b
    1524:	20 95       	com	r18
    1526:	30 95       	com	r19
    1528:	84 a1       	ldd	r24, Z+36	; 0x24
    152a:	95 a1       	ldd	r25, Z+37	; 0x25
    152c:	28 27       	eor	r18, r24
    152e:	39 27       	eor	r19, r25
    1530:	c9 01       	movw	r24, r18
    1532:	08 95       	ret

00001534 <sonyPS2_buttonsRaw>:
    1534:	fc 01       	movw	r30, r24
    1536:	22 85       	ldd	r18, Z+10	; 0x0a
    1538:	33 85       	ldd	r19, Z+11	; 0x0b
    153a:	20 95       	com	r18
    153c:	30 95       	com	r19
    153e:	c9 01       	movw	r24, r18
    1540:	08 95       	ret

00001542 <sonyPS2_buttonPressed>:
    1542:	fc 01       	movw	r30, r24
    1544:	82 85       	ldd	r24, Z+10	; 0x0a
    1546:	93 85       	ldd	r25, Z+11	; 0x0b
    1548:	80 95       	com	r24
    154a:	90 95       	com	r25
    154c:	86 23       	and	r24, r22
    154e:	97 23       	and	r25, r23
    1550:	89 2b       	or	r24, r25
    1552:	11 f4       	brne	.+4      	; 0x1558 <sonyPS2_buttonPressed+0x16>
    1554:	80 e0       	ldi	r24, 0x00	; 0
    1556:	08 95       	ret
    1558:	8f ef       	ldi	r24, 0xFF	; 255
    155a:	08 95       	ret

0000155c <sonyPS2_buttonPressure>:
    155c:	fc 01       	movw	r30, r24
    155e:	82 85       	ldd	r24, Z+10	; 0x0a
    1560:	93 85       	ldd	r25, Z+11	; 0x0b
    1562:	80 95       	com	r24
    1564:	90 95       	com	r25
    1566:	86 23       	and	r24, r22
    1568:	97 23       	and	r25, r23
    156a:	89 2b       	or	r24, r25
    156c:	09 f4       	brne	.+2      	; 0x1570 <sonyPS2_buttonPressure+0x14>
    156e:	55 c0       	rjmp	.+170    	; 0x161a <sonyPS2_buttonPressure+0xbe>
    1570:	80 85       	ldd	r24, Z+8	; 0x08
    1572:	89 37       	cpi	r24, 0x79	; 121
    1574:	09 f0       	breq	.+2      	; 0x1578 <sonyPS2_buttonPressure+0x1c>
    1576:	53 c0       	rjmp	.+166    	; 0x161e <sonyPS2_buttonPressure+0xc2>
    1578:	82 e0       	ldi	r24, 0x02	; 2
    157a:	60 30       	cpi	r22, 0x00	; 0
    157c:	78 07       	cpc	r23, r24
    157e:	09 f4       	brne	.+2      	; 0x1582 <sonyPS2_buttonPressure+0x26>
    1580:	3e c0       	rjmp	.+124    	; 0x15fe <sonyPS2_buttonPressure+0xa2>
    1582:	82 e0       	ldi	r24, 0x02	; 2
    1584:	61 30       	cpi	r22, 0x01	; 1
    1586:	78 07       	cpc	r23, r24
    1588:	b0 f4       	brcc	.+44     	; 0x15b6 <sonyPS2_buttonPressure+0x5a>
    158a:	60 34       	cpi	r22, 0x40	; 64
    158c:	71 05       	cpc	r23, r1
    158e:	89 f1       	breq	.+98     	; 0x15f2 <sonyPS2_buttonPressure+0x96>
    1590:	61 34       	cpi	r22, 0x41	; 65
    1592:	71 05       	cpc	r23, r1
    1594:	48 f4       	brcc	.+18     	; 0x15a8 <sonyPS2_buttonPressure+0x4c>
    1596:	60 31       	cpi	r22, 0x10	; 16
    1598:	71 05       	cpc	r23, r1
    159a:	09 f4       	brne	.+2      	; 0x159e <sonyPS2_buttonPressure+0x42>
    159c:	42 c0       	rjmp	.+132    	; 0x1622 <sonyPS2_buttonPressure+0xc6>
    159e:	60 32       	cpi	r22, 0x20	; 32
    15a0:	71 05       	cpc	r23, r1
    15a2:	09 f0       	breq	.+2      	; 0x15a6 <sonyPS2_buttonPressure+0x4a>
    15a4:	3c c0       	rjmp	.+120    	; 0x161e <sonyPS2_buttonPressure+0xc2>
    15a6:	23 c0       	rjmp	.+70     	; 0x15ee <sonyPS2_buttonPressure+0x92>
    15a8:	60 38       	cpi	r22, 0x80	; 128
    15aa:	71 05       	cpc	r23, r1
    15ac:	21 f1       	breq	.+72     	; 0x15f6 <sonyPS2_buttonPressure+0x9a>
    15ae:	60 50       	subi	r22, 0x00	; 0
    15b0:	71 40       	sbci	r23, 0x01	; 1
    15b2:	a9 f5       	brne	.+106    	; 0x161e <sonyPS2_buttonPressure+0xc2>
    15b4:	22 c0       	rjmp	.+68     	; 0x15fa <sonyPS2_buttonPressure+0x9e>
    15b6:	80 e1       	ldi	r24, 0x10	; 16
    15b8:	60 30       	cpi	r22, 0x00	; 0
    15ba:	78 07       	cpc	r23, r24
    15bc:	31 f1       	breq	.+76     	; 0x160a <sonyPS2_buttonPressure+0xae>
    15be:	80 e1       	ldi	r24, 0x10	; 16
    15c0:	61 30       	cpi	r22, 0x01	; 1
    15c2:	78 07       	cpc	r23, r24
    15c4:	40 f4       	brcc	.+16     	; 0x15d6 <sonyPS2_buttonPressure+0x7a>
    15c6:	84 e0       	ldi	r24, 0x04	; 4
    15c8:	60 30       	cpi	r22, 0x00	; 0
    15ca:	78 07       	cpc	r23, r24
    15cc:	d1 f0       	breq	.+52     	; 0x1602 <sonyPS2_buttonPressure+0xa6>
    15ce:	60 50       	subi	r22, 0x00	; 0
    15d0:	78 40       	sbci	r23, 0x08	; 8
    15d2:	29 f5       	brne	.+74     	; 0x161e <sonyPS2_buttonPressure+0xc2>
    15d4:	18 c0       	rjmp	.+48     	; 0x1606 <sonyPS2_buttonPressure+0xaa>
    15d6:	80 e4       	ldi	r24, 0x40	; 64
    15d8:	60 30       	cpi	r22, 0x00	; 0
    15da:	78 07       	cpc	r23, r24
    15dc:	d1 f0       	breq	.+52     	; 0x1612 <sonyPS2_buttonPressure+0xb6>
    15de:	80 e8       	ldi	r24, 0x80	; 128
    15e0:	60 30       	cpi	r22, 0x00	; 0
    15e2:	78 07       	cpc	r23, r24
    15e4:	c1 f0       	breq	.+48     	; 0x1616 <sonyPS2_buttonPressure+0xba>
    15e6:	60 50       	subi	r22, 0x00	; 0
    15e8:	70 42       	sbci	r23, 0x20	; 32
    15ea:	c9 f4       	brne	.+50     	; 0x161e <sonyPS2_buttonPressure+0xc2>
    15ec:	10 c0       	rjmp	.+32     	; 0x160e <sonyPS2_buttonPressure+0xb2>
    15ee:	86 e0       	ldi	r24, 0x06	; 6
    15f0:	19 c0       	rjmp	.+50     	; 0x1624 <sonyPS2_buttonPressure+0xc8>
    15f2:	89 e0       	ldi	r24, 0x09	; 9
    15f4:	17 c0       	rjmp	.+46     	; 0x1624 <sonyPS2_buttonPressure+0xc8>
    15f6:	87 e0       	ldi	r24, 0x07	; 7
    15f8:	15 c0       	rjmp	.+42     	; 0x1624 <sonyPS2_buttonPressure+0xc8>
    15fa:	80 e1       	ldi	r24, 0x10	; 16
    15fc:	13 c0       	rjmp	.+38     	; 0x1624 <sonyPS2_buttonPressure+0xc8>
    15fe:	81 e1       	ldi	r24, 0x11	; 17
    1600:	11 c0       	rjmp	.+34     	; 0x1624 <sonyPS2_buttonPressure+0xc8>
    1602:	8e e0       	ldi	r24, 0x0E	; 14
    1604:	0f c0       	rjmp	.+30     	; 0x1624 <sonyPS2_buttonPressure+0xc8>
    1606:	8f e0       	ldi	r24, 0x0F	; 15
    1608:	0d c0       	rjmp	.+26     	; 0x1624 <sonyPS2_buttonPressure+0xc8>
    160a:	8a e0       	ldi	r24, 0x0A	; 10
    160c:	0b c0       	rjmp	.+22     	; 0x1624 <sonyPS2_buttonPressure+0xc8>
    160e:	8b e0       	ldi	r24, 0x0B	; 11
    1610:	09 c0       	rjmp	.+18     	; 0x1624 <sonyPS2_buttonPressure+0xc8>
    1612:	8c e0       	ldi	r24, 0x0C	; 12
    1614:	07 c0       	rjmp	.+14     	; 0x1624 <sonyPS2_buttonPressure+0xc8>
    1616:	8d e0       	ldi	r24, 0x0D	; 13
    1618:	05 c0       	rjmp	.+10     	; 0x1624 <sonyPS2_buttonPressure+0xc8>
    161a:	80 e0       	ldi	r24, 0x00	; 0
    161c:	08 95       	ret
    161e:	8f ef       	ldi	r24, 0xFF	; 255
    1620:	08 95       	ret
    1622:	88 e0       	ldi	r24, 0x08	; 8
    1624:	e8 0f       	add	r30, r24
    1626:	f1 1d       	adc	r31, r1
    1628:	82 85       	ldd	r24, Z+10	; 0x0a
    162a:	08 95       	ret

0000162c <btnJoystick>:
    162c:	cf 92       	push	r12
    162e:	df 92       	push	r13
    1630:	ef 92       	push	r14
    1632:	ff 92       	push	r15
    1634:	0f 93       	push	r16
    1636:	1f 93       	push	r17
    1638:	7c 01       	movw	r14, r24
    163a:	6a 01       	movw	r12, r20
    163c:	0e 94 ae 0a 	call	0x155c	; 0x155c <sonyPS2_buttonPressure>
    1640:	08 2f       	mov	r16, r24
    1642:	c7 01       	movw	r24, r14
    1644:	b6 01       	movw	r22, r12
    1646:	0e 94 ae 0a 	call	0x155c	; 0x155c <sonyPS2_buttonPressure>
    164a:	10 e0       	ldi	r17, 0x00	; 0
    164c:	98 01       	movw	r18, r16
    164e:	28 1b       	sub	r18, r24
    1650:	31 09       	sbc	r19, r1
    1652:	c9 01       	movw	r24, r18
    1654:	62 e0       	ldi	r22, 0x02	; 2
    1656:	70 e0       	ldi	r23, 0x00	; 0
    1658:	0e 94 f5 27 	call	0x4fea	; 0x4fea <__divmodhi4>
    165c:	cb 01       	movw	r24, r22
    165e:	80 58       	subi	r24, 0x80	; 128
    1660:	1f 91       	pop	r17
    1662:	0f 91       	pop	r16
    1664:	ff 90       	pop	r15
    1666:	ef 90       	pop	r14
    1668:	df 90       	pop	r13
    166a:	cf 90       	pop	r12
    166c:	08 95       	ret

0000166e <sonyPS2_joystickRaw>:
    166e:	fc 01       	movw	r30, r24
    1670:	66 30       	cpi	r22, 0x06	; 6
    1672:	39 f4       	brne	.+14     	; 0x1682 <sonyPS2_joystickRaw+0x14>
    1674:	60 e2       	ldi	r22, 0x20	; 32
    1676:	70 e0       	ldi	r23, 0x00	; 0
    1678:	40 e8       	ldi	r20, 0x80	; 128
    167a:	50 e0       	ldi	r21, 0x00	; 0
    167c:	0e 94 16 0b 	call	0x162c	; 0x162c <btnJoystick>
    1680:	08 95       	ret
    1682:	67 30       	cpi	r22, 0x07	; 7
    1684:	39 f4       	brne	.+14     	; 0x1694 <sonyPS2_joystickRaw+0x26>
    1686:	60 e4       	ldi	r22, 0x40	; 64
    1688:	70 e0       	ldi	r23, 0x00	; 0
    168a:	40 e1       	ldi	r20, 0x10	; 16
    168c:	50 e0       	ldi	r21, 0x00	; 0
    168e:	0e 94 16 0b 	call	0x162c	; 0x162c <btnJoystick>
    1692:	08 95       	ret
    1694:	68 30       	cpi	r22, 0x08	; 8
    1696:	39 f4       	brne	.+14     	; 0x16a6 <sonyPS2_joystickRaw+0x38>
    1698:	60 e0       	ldi	r22, 0x00	; 0
    169a:	70 e2       	ldi	r23, 0x20	; 32
    169c:	40 e0       	ldi	r20, 0x00	; 0
    169e:	50 e8       	ldi	r21, 0x80	; 128
    16a0:	0e 94 16 0b 	call	0x162c	; 0x162c <btnJoystick>
    16a4:	08 95       	ret
    16a6:	69 30       	cpi	r22, 0x09	; 9
    16a8:	39 f4       	brne	.+14     	; 0x16b8 <sonyPS2_joystickRaw+0x4a>
    16aa:	60 e0       	ldi	r22, 0x00	; 0
    16ac:	70 e4       	ldi	r23, 0x40	; 64
    16ae:	40 e0       	ldi	r20, 0x00	; 0
    16b0:	50 e1       	ldi	r21, 0x10	; 16
    16b2:	0e 94 16 0b 	call	0x162c	; 0x162c <btnJoystick>
    16b6:	08 95       	ret
    16b8:	e6 0f       	add	r30, r22
    16ba:	f1 1d       	adc	r31, r1
    16bc:	82 85       	ldd	r24, Z+10	; 0x0a
    16be:	08 95       	ret

000016c0 <sonyPS2_joystick>:
    16c0:	1f 93       	push	r17
    16c2:	cf 93       	push	r28
    16c4:	df 93       	push	r29
    16c6:	ec 01       	movw	r28, r24
    16c8:	16 2f       	mov	r17, r22
    16ca:	0e 94 37 0b 	call	0x166e	; 0x166e <sonyPS2_joystickRaw>
    16ce:	68 2f       	mov	r22, r24
    16d0:	70 e0       	ldi	r23, 0x00	; 0
    16d2:	16 30       	cpi	r17, 0x06	; 6
    16d4:	40 f4       	brcc	.+16     	; 0x16e6 <sonyPS2_joystick+0x26>
    16d6:	fe 01       	movw	r30, r28
    16d8:	e1 0f       	add	r30, r17
    16da:	f1 1d       	adc	r31, r1
    16dc:	82 8d       	ldd	r24, Z+26	; 0x1a
    16de:	9b 01       	movw	r18, r22
    16e0:	28 1b       	sub	r18, r24
    16e2:	31 09       	sbc	r19, r1
    16e4:	03 c0       	rjmp	.+6      	; 0x16ec <sonyPS2_joystick+0x2c>
    16e6:	9b 01       	movw	r18, r22
    16e8:	20 58       	subi	r18, 0x80	; 128
    16ea:	30 40       	sbci	r19, 0x00	; 0
    16ec:	88 a1       	ldd	r24, Y+32	; 0x20
    16ee:	68 2f       	mov	r22, r24
    16f0:	70 e0       	ldi	r23, 0x00	; 0
    16f2:	62 17       	cp	r22, r18
    16f4:	73 07       	cpc	r23, r19
    16f6:	2c f4       	brge	.+10     	; 0x1702 <sonyPS2_joystick+0x42>
    16f8:	c9 01       	movw	r24, r18
    16fa:	86 1b       	sub	r24, r22
    16fc:	97 0b       	sbc	r25, r23
    16fe:	bc 01       	movw	r22, r24
    1700:	0d c0       	rjmp	.+26     	; 0x171c <sonyPS2_joystick+0x5c>
    1702:	88 27       	eor	r24, r24
    1704:	99 27       	eor	r25, r25
    1706:	86 1b       	sub	r24, r22
    1708:	97 0b       	sbc	r25, r23
    170a:	28 17       	cp	r18, r24
    170c:	39 07       	cpc	r19, r25
    170e:	1c f0       	brlt	.+6      	; 0x1716 <sonyPS2_joystick+0x56>
    1710:	60 e0       	ldi	r22, 0x00	; 0
    1712:	70 e0       	ldi	r23, 0x00	; 0
    1714:	09 c0       	rjmp	.+18     	; 0x1728 <sonyPS2_joystick+0x68>
    1716:	b9 01       	movw	r22, r18
    1718:	68 1b       	sub	r22, r24
    171a:	79 0b       	sbc	r23, r25
    171c:	9f ef       	ldi	r25, 0xFF	; 255
    171e:	61 38       	cpi	r22, 0x81	; 129
    1720:	79 07       	cpc	r23, r25
    1722:	14 f4       	brge	.+4      	; 0x1728 <sonyPS2_joystick+0x68>
    1724:	80 e8       	ldi	r24, 0x80	; 128
    1726:	06 c0       	rjmp	.+12     	; 0x1734 <sonyPS2_joystick+0x74>
    1728:	60 38       	cpi	r22, 0x80	; 128
    172a:	71 05       	cpc	r23, r1
    172c:	14 f0       	brlt	.+4      	; 0x1732 <sonyPS2_joystick+0x72>
    172e:	6f e7       	ldi	r22, 0x7F	; 127
    1730:	70 e0       	ldi	r23, 0x00	; 0
    1732:	86 2f       	mov	r24, r22
    1734:	df 91       	pop	r29
    1736:	cf 91       	pop	r28
    1738:	1f 91       	pop	r17
    173a:	08 95       	ret

0000173c <sonyPS2_buttonDown>:
    173c:	fc 01       	movw	r30, r24
    173e:	84 a1       	ldd	r24, Z+36	; 0x24
    1740:	95 a1       	ldd	r25, Z+37	; 0x25
    1742:	86 23       	and	r24, r22
    1744:	97 23       	and	r25, r23
    1746:	89 2b       	or	r24, r25
    1748:	51 f4       	brne	.+20     	; 0x175e <sonyPS2_buttonDown+0x22>
    174a:	82 85       	ldd	r24, Z+10	; 0x0a
    174c:	93 85       	ldd	r25, Z+11	; 0x0b
    174e:	80 95       	com	r24
    1750:	90 95       	com	r25
    1752:	86 23       	and	r24, r22
    1754:	97 23       	and	r25, r23
    1756:	89 2b       	or	r24, r25
    1758:	11 f0       	breq	.+4      	; 0x175e <sonyPS2_buttonDown+0x22>
    175a:	8f ef       	ldi	r24, 0xFF	; 255
    175c:	08 95       	ret
    175e:	80 e0       	ldi	r24, 0x00	; 0
    1760:	08 95       	ret

00001762 <sonyPS2_buttonUp>:
    1762:	fc 01       	movw	r30, r24
    1764:	24 a1       	ldd	r18, Z+36	; 0x24
    1766:	35 a1       	ldd	r19, Z+37	; 0x25
    1768:	26 23       	and	r18, r22
    176a:	37 23       	and	r19, r23
    176c:	26 17       	cp	r18, r22
    176e:	37 07       	cpc	r19, r23
    1770:	51 f4       	brne	.+20     	; 0x1786 <sonyPS2_buttonUp+0x24>
    1772:	82 85       	ldd	r24, Z+10	; 0x0a
    1774:	93 85       	ldd	r25, Z+11	; 0x0b
    1776:	80 95       	com	r24
    1778:	90 95       	com	r25
    177a:	28 23       	and	r18, r24
    177c:	39 23       	and	r19, r25
    177e:	23 2b       	or	r18, r19
    1780:	11 f4       	brne	.+4      	; 0x1786 <sonyPS2_buttonUp+0x24>
    1782:	8f ef       	ldi	r24, 0xFF	; 255
    1784:	08 95       	ret
    1786:	80 e0       	ldi	r24, 0x00	; 0
    1788:	08 95       	ret

0000178a <sonyPS2_buttonHeld>:
    178a:	fc 01       	movw	r30, r24
    178c:	24 a1       	ldd	r18, Z+36	; 0x24
    178e:	35 a1       	ldd	r19, Z+37	; 0x25
    1790:	26 23       	and	r18, r22
    1792:	37 23       	and	r19, r23
    1794:	26 17       	cp	r18, r22
    1796:	37 07       	cpc	r19, r23
    1798:	51 f4       	brne	.+20     	; 0x17ae <sonyPS2_buttonHeld+0x24>
    179a:	82 85       	ldd	r24, Z+10	; 0x0a
    179c:	93 85       	ldd	r25, Z+11	; 0x0b
    179e:	80 95       	com	r24
    17a0:	90 95       	com	r25
    17a2:	28 23       	and	r18, r24
    17a4:	39 23       	and	r19, r25
    17a6:	23 2b       	or	r18, r19
    17a8:	11 f0       	breq	.+4      	; 0x17ae <sonyPS2_buttonHeld+0x24>
    17aa:	8f ef       	ldi	r24, 0xFF	; 255
    17ac:	08 95       	ret
    17ae:	80 e0       	ldi	r24, 0x00	; 0
    17b0:	08 95       	ret

000017b2 <sendCmd>:
    17b2:	cf 92       	push	r12
    17b4:	df 92       	push	r13
    17b6:	ef 92       	push	r14
    17b8:	ff 92       	push	r15
    17ba:	0f 93       	push	r16
    17bc:	1f 93       	push	r17
    17be:	cf 93       	push	r28
    17c0:	df 93       	push	r29
    17c2:	d8 2e       	mov	r13, r24
    17c4:	c9 2e       	mov	r12, r25
    17c6:	7b 01       	movw	r14, r22
    17c8:	8a 01       	movw	r16, r20
    17ca:	c0 e0       	ldi	r28, 0x00	; 0
    17cc:	d0 e0       	ldi	r29, 0x00	; 0
    17ce:	0a c0       	rjmp	.+20     	; 0x17e4 <sendCmd+0x32>
    17d0:	f7 01       	movw	r30, r14
    17d2:	ec 0f       	add	r30, r28
    17d4:	fd 1f       	adc	r31, r29
    17d6:	e4 91       	lpm	r30, Z+
    17d8:	8d 2d       	mov	r24, r13
    17da:	9c 2d       	mov	r25, r12
    17dc:	6e 2f       	mov	r22, r30
    17de:	0e 94 06 0f 	call	0x1e0c	; 0x1e0c <spiAbstractDeviceSendByte>
    17e2:	21 96       	adiw	r28, 0x01	; 1
    17e4:	c0 17       	cp	r28, r16
    17e6:	d1 07       	cpc	r29, r17
    17e8:	98 f3       	brcs	.-26     	; 0x17d0 <sendCmd+0x1e>
    17ea:	8d 2d       	mov	r24, r13
    17ec:	9c 2d       	mov	r25, r12
    17ee:	60 e0       	ldi	r22, 0x00	; 0
    17f0:	0e 94 ae 0d 	call	0x1b5c	; 0x1b5c <spiAbstractDeviceSelect>
    17f4:	6a e0       	ldi	r22, 0x0A	; 10
    17f6:	70 e0       	ldi	r23, 0x00	; 0
    17f8:	80 e0       	ldi	r24, 0x00	; 0
    17fa:	90 e0       	ldi	r25, 0x00	; 0
    17fc:	0e 94 d7 20 	call	0x41ae	; 0x41ae <delay_ms>
    1800:	df 91       	pop	r29
    1802:	cf 91       	pop	r28
    1804:	1f 91       	pop	r17
    1806:	0f 91       	pop	r16
    1808:	ff 90       	pop	r15
    180a:	ef 90       	pop	r14
    180c:	df 90       	pop	r13
    180e:	cf 90       	pop	r12
    1810:	08 95       	ret

00001812 <sonyPS_setRumble>:
    1812:	0f 93       	push	r16
    1814:	1f 93       	push	r17
    1816:	cf 93       	push	r28
    1818:	df 93       	push	r29
    181a:	ec 01       	movw	r28, r24
    181c:	16 2f       	mov	r17, r22
    181e:	04 2f       	mov	r16, r20
    1820:	66 23       	and	r22, r22
    1822:	11 f4       	brne	.+4      	; 0x1828 <sonyPS_setRumble+0x16>
    1824:	44 23       	and	r20, r20
    1826:	d1 f0       	breq	.+52     	; 0x185c <sonyPS_setRumble+0x4a>
    1828:	89 a1       	ldd	r24, Y+33	; 0x21
    182a:	88 23       	and	r24, r24
    182c:	b9 f4       	brne	.+46     	; 0x185c <sonyPS_setRumble+0x4a>
    182e:	8f ef       	ldi	r24, 0xFF	; 255
    1830:	89 a3       	std	Y+33, r24	; 0x21
    1832:	ce 01       	movw	r24, r28
    1834:	62 e3       	ldi	r22, 0x32	; 50
    1836:	72 e0       	ldi	r23, 0x02	; 2
    1838:	45 e0       	ldi	r20, 0x05	; 5
    183a:	50 e0       	ldi	r21, 0x00	; 0
    183c:	0e 94 d9 0b 	call	0x17b2	; 0x17b2 <sendCmd>
    1840:	ce 01       	movw	r24, r28
    1842:	67 e3       	ldi	r22, 0x37	; 55
    1844:	72 e0       	ldi	r23, 0x02	; 2
    1846:	49 e0       	ldi	r20, 0x09	; 9
    1848:	50 e0       	ldi	r21, 0x00	; 0
    184a:	0e 94 d9 0b 	call	0x17b2	; 0x17b2 <sendCmd>
    184e:	ce 01       	movw	r24, r28
    1850:	60 e4       	ldi	r22, 0x40	; 64
    1852:	72 e0       	ldi	r23, 0x02	; 2
    1854:	49 e0       	ldi	r20, 0x09	; 9
    1856:	50 e0       	ldi	r21, 0x00	; 0
    1858:	0e 94 d9 0b 	call	0x17b2	; 0x17b2 <sendCmd>
    185c:	0b a3       	std	Y+35, r16	; 0x23
    185e:	11 23       	and	r17, r17
    1860:	11 f4       	brne	.+4      	; 0x1866 <sonyPS_setRumble+0x54>
    1862:	80 e0       	ldi	r24, 0x00	; 0
    1864:	0c c0       	rjmp	.+24     	; 0x187e <sonyPS_setRumble+0x6c>
    1866:	81 2f       	mov	r24, r17
    1868:	90 e0       	ldi	r25, 0x00	; 0
    186a:	60 e0       	ldi	r22, 0x00	; 0
    186c:	70 e0       	ldi	r23, 0x00	; 0
    186e:	4f ef       	ldi	r20, 0xFF	; 255
    1870:	50 e0       	ldi	r21, 0x00	; 0
    1872:	20 e4       	ldi	r18, 0x40	; 64
    1874:	30 e0       	ldi	r19, 0x00	; 0
    1876:	0f ef       	ldi	r16, 0xFF	; 255
    1878:	10 e0       	ldi	r17, 0x00	; 0
    187a:	0e 94 bf 11 	call	0x237e	; 0x237e <interpolateU>
    187e:	8a a3       	std	Y+34, r24	; 0x22
    1880:	df 91       	pop	r29
    1882:	cf 91       	pop	r28
    1884:	1f 91       	pop	r17
    1886:	0f 91       	pop	r16
    1888:	08 95       	ret

0000188a <sonyPS2_read>:
    188a:	ef 92       	push	r14
    188c:	ff 92       	push	r15
    188e:	0f 93       	push	r16
    1890:	1f 93       	push	r17
    1892:	cf 93       	push	r28
    1894:	df 93       	push	r29
    1896:	ec 01       	movw	r28, r24
    1898:	8a 85       	ldd	r24, Y+10	; 0x0a
    189a:	9b 85       	ldd	r25, Y+11	; 0x0b
    189c:	80 95       	com	r24
    189e:	90 95       	com	r25
    18a0:	9d a3       	std	Y+37, r25	; 0x25
    18a2:	8c a3       	std	Y+36, r24	; 0x24
    18a4:	fc 2e       	mov	r15, r28
    18a6:	ed 2e       	mov	r14, r29
    18a8:	ce 01       	movw	r24, r28
    18aa:	61 e0       	ldi	r22, 0x01	; 1
    18ac:	0e 94 06 0f 	call	0x1e0c	; 0x1e0c <spiAbstractDeviceSendByte>
    18b0:	ce 01       	movw	r24, r28
    18b2:	62 e4       	ldi	r22, 0x42	; 66
    18b4:	0e 94 b6 0e 	call	0x1d6c	; 0x1d6c <spiAbstractDeviceXferByte>
    18b8:	88 87       	std	Y+8, r24	; 0x08
    18ba:	ce 01       	movw	r24, r28
    18bc:	0e 94 01 0f 	call	0x1e02	; 0x1e02 <spiAbstractDeviceReceiveByte>
    18c0:	89 87       	std	Y+9, r24	; 0x09
    18c2:	8a 35       	cpi	r24, 0x5A	; 90
    18c4:	79 f5       	brne	.+94     	; 0x1924 <sonyPS2_read+0x9a>
    18c6:	88 85       	ldd	r24, Y+8	; 0x08
    18c8:	89 37       	cpi	r24, 0x79	; 121
    18ca:	11 f4       	brne	.+4      	; 0x18d0 <sonyPS2_read+0x46>
    18cc:	02 e1       	ldi	r16, 0x12	; 18
    18ce:	07 c0       	rjmp	.+14     	; 0x18de <sonyPS2_read+0x54>
    18d0:	83 37       	cpi	r24, 0x73	; 115
    18d2:	11 f4       	brne	.+4      	; 0x18d8 <sonyPS2_read+0x4e>
    18d4:	06 e0       	ldi	r16, 0x06	; 6
    18d6:	03 c0       	rjmp	.+6      	; 0x18de <sonyPS2_read+0x54>
    18d8:	81 34       	cpi	r24, 0x41	; 65
    18da:	21 f5       	brne	.+72     	; 0x1924 <sonyPS2_read+0x9a>
    18dc:	02 e0       	ldi	r16, 0x02	; 2
    18de:	89 a1       	ldd	r24, Y+33	; 0x21
    18e0:	88 23       	and	r24, r24
    18e2:	11 f4       	brne	.+4      	; 0x18e8 <sonyPS2_read+0x5e>
    18e4:	10 e0       	ldi	r17, 0x00	; 0
    18e6:	1a c0       	rjmp	.+52     	; 0x191c <sonyPS2_read+0x92>
    18e8:	60 e0       	ldi	r22, 0x00	; 0
    18ea:	8b a1       	ldd	r24, Y+35	; 0x23
    18ec:	81 11       	cpse	r24, r1
    18ee:	61 e0       	ldi	r22, 0x01	; 1
    18f0:	8f 2d       	mov	r24, r15
    18f2:	9e 2d       	mov	r25, r14
    18f4:	0e 94 b6 0e 	call	0x1d6c	; 0x1d6c <spiAbstractDeviceXferByte>
    18f8:	8a 87       	std	Y+10, r24	; 0x0a
    18fa:	8f 2d       	mov	r24, r15
    18fc:	9e 2d       	mov	r25, r14
    18fe:	6a a1       	ldd	r22, Y+34	; 0x22
    1900:	0e 94 b6 0e 	call	0x1d6c	; 0x1d6c <spiAbstractDeviceXferByte>
    1904:	8b 87       	std	Y+11, r24	; 0x0b
    1906:	12 e0       	ldi	r17, 0x02	; 2
    1908:	09 c0       	rjmp	.+18     	; 0x191c <sonyPS2_read+0x92>
    190a:	8f 2d       	mov	r24, r15
    190c:	9e 2d       	mov	r25, r14
    190e:	0e 94 01 0f 	call	0x1e02	; 0x1e02 <spiAbstractDeviceReceiveByte>
    1912:	fe 01       	movw	r30, r28
    1914:	e1 0f       	add	r30, r17
    1916:	f1 1d       	adc	r31, r1
    1918:	82 87       	std	Z+10, r24	; 0x0a
    191a:	1f 5f       	subi	r17, 0xFF	; 255
    191c:	10 17       	cp	r17, r16
    191e:	a8 f3       	brcs	.-22     	; 0x190a <sonyPS2_read+0x80>
    1920:	1f ef       	ldi	r17, 0xFF	; 255
    1922:	02 c0       	rjmp	.+4      	; 0x1928 <sonyPS2_read+0x9e>
    1924:	10 e0       	ldi	r17, 0x00	; 0
    1926:	00 e0       	ldi	r16, 0x00	; 0
    1928:	8f 2d       	mov	r24, r15
    192a:	9e 2d       	mov	r25, r14
    192c:	60 e0       	ldi	r22, 0x00	; 0
    192e:	0e 94 ae 0d 	call	0x1b5c	; 0x1b5c <spiAbstractDeviceSelect>
    1932:	0b c0       	rjmp	.+22     	; 0x194a <sonyPS2_read+0xc0>
    1934:	a0 2f       	mov	r26, r16
    1936:	b0 e0       	ldi	r27, 0x00	; 0
    1938:	fd 01       	movw	r30, r26
    193a:	e5 5a       	subi	r30, 0xA5	; 165
    193c:	fd 4f       	sbci	r31, 0xFD	; 253
    193e:	e4 91       	lpm	r30, Z+
    1940:	ac 0f       	add	r26, r28
    1942:	bd 1f       	adc	r27, r29
    1944:	1a 96       	adiw	r26, 0x0a	; 10
    1946:	ec 93       	st	X, r30
    1948:	0f 5f       	subi	r16, 0xFF	; 255
    194a:	02 31       	cpi	r16, 0x12	; 18
    194c:	98 f3       	brcs	.-26     	; 0x1934 <sonyPS2_read+0xaa>
    194e:	81 2f       	mov	r24, r17
    1950:	df 91       	pop	r29
    1952:	cf 91       	pop	r28
    1954:	1f 91       	pop	r17
    1956:	0f 91       	pop	r16
    1958:	ff 90       	pop	r15
    195a:	ef 90       	pop	r14
    195c:	08 95       	ret

0000195e <sonyPS2_setAnalogMode>:
    195e:	1f 93       	push	r17
    1960:	cf 93       	push	r28
    1962:	df 93       	push	r29
    1964:	ec 01       	movw	r28, r24
    1966:	0e 94 45 0c 	call	0x188a	; 0x188a <sonyPS2_read>
    196a:	88 23       	and	r24, r24
    196c:	09 f4       	brne	.+2      	; 0x1970 <sonyPS2_setAnalogMode+0x12>
    196e:	40 c0       	rjmp	.+128    	; 0x19f0 <sonyPS2_setAnalogMode+0x92>
    1970:	14 e6       	ldi	r17, 0x64	; 100
    1972:	39 c0       	rjmp	.+114    	; 0x19e6 <sonyPS2_setAnalogMode+0x88>
    1974:	ce 01       	movw	r24, r28
    1976:	62 e3       	ldi	r22, 0x32	; 50
    1978:	72 e0       	ldi	r23, 0x02	; 2
    197a:	45 e0       	ldi	r20, 0x05	; 5
    197c:	50 e0       	ldi	r21, 0x00	; 0
    197e:	0e 94 d9 0b 	call	0x17b2	; 0x17b2 <sendCmd>
    1982:	ce 01       	movw	r24, r28
    1984:	69 e4       	ldi	r22, 0x49	; 73
    1986:	72 e0       	ldi	r23, 0x02	; 2
    1988:	49 e0       	ldi	r20, 0x09	; 9
    198a:	50 e0       	ldi	r21, 0x00	; 0
    198c:	0e 94 d9 0b 	call	0x17b2	; 0x17b2 <sendCmd>
    1990:	ce 01       	movw	r24, r28
    1992:	60 e4       	ldi	r22, 0x40	; 64
    1994:	72 e0       	ldi	r23, 0x02	; 2
    1996:	49 e0       	ldi	r20, 0x09	; 9
    1998:	50 e0       	ldi	r21, 0x00	; 0
    199a:	0e 94 d9 0b 	call	0x17b2	; 0x17b2 <sendCmd>
    199e:	ce 01       	movw	r24, r28
    19a0:	0e 94 45 0c 	call	0x188a	; 0x188a <sonyPS2_read>
    19a4:	ce 01       	movw	r24, r28
    19a6:	0e 94 45 0c 	call	0x188a	; 0x188a <sonyPS2_read>
    19aa:	88 85       	ldd	r24, Y+8	; 0x08
    19ac:	83 37       	cpi	r24, 0x73	; 115
    19ae:	a9 f4       	brne	.+42     	; 0x19da <sonyPS2_setAnalogMode+0x7c>
    19b0:	ce 01       	movw	r24, r28
    19b2:	62 e3       	ldi	r22, 0x32	; 50
    19b4:	72 e0       	ldi	r23, 0x02	; 2
    19b6:	45 e0       	ldi	r20, 0x05	; 5
    19b8:	50 e0       	ldi	r21, 0x00	; 0
    19ba:	0e 94 d9 0b 	call	0x17b2	; 0x17b2 <sendCmd>
    19be:	ce 01       	movw	r24, r28
    19c0:	62 e5       	ldi	r22, 0x52	; 82
    19c2:	72 e0       	ldi	r23, 0x02	; 2
    19c4:	49 e0       	ldi	r20, 0x09	; 9
    19c6:	50 e0       	ldi	r21, 0x00	; 0
    19c8:	0e 94 d9 0b 	call	0x17b2	; 0x17b2 <sendCmd>
    19cc:	ce 01       	movw	r24, r28
    19ce:	60 e4       	ldi	r22, 0x40	; 64
    19d0:	72 e0       	ldi	r23, 0x02	; 2
    19d2:	49 e0       	ldi	r20, 0x09	; 9
    19d4:	50 e0       	ldi	r21, 0x00	; 0
    19d6:	0e 94 d9 0b 	call	0x17b2	; 0x17b2 <sendCmd>
    19da:	ce 01       	movw	r24, r28
    19dc:	0e 94 45 0c 	call	0x188a	; 0x188a <sonyPS2_read>
    19e0:	ce 01       	movw	r24, r28
    19e2:	0e 94 45 0c 	call	0x188a	; 0x188a <sonyPS2_read>
    19e6:	88 85       	ldd	r24, Y+8	; 0x08
    19e8:	89 37       	cpi	r24, 0x79	; 121
    19ea:	11 f0       	breq	.+4      	; 0x19f0 <sonyPS2_setAnalogMode+0x92>
    19ec:	11 50       	subi	r17, 0x01	; 1
    19ee:	11 f6       	brne	.-124    	; 0x1974 <sonyPS2_setAnalogMode+0x16>
    19f0:	88 85       	ldd	r24, Y+8	; 0x08
    19f2:	83 37       	cpi	r24, 0x73	; 115
    19f4:	21 f0       	breq	.+8      	; 0x19fe <sonyPS2_setAnalogMode+0xa0>
    19f6:	89 37       	cpi	r24, 0x79	; 121
    19f8:	11 f0       	breq	.+4      	; 0x19fe <sonyPS2_setAnalogMode+0xa0>
    19fa:	80 e0       	ldi	r24, 0x00	; 0
    19fc:	01 c0       	rjmp	.+2      	; 0x1a00 <sonyPS2_setAnalogMode+0xa2>
    19fe:	8f ef       	ldi	r24, 0xFF	; 255
    1a00:	df 91       	pop	r29
    1a02:	cf 91       	pop	r28
    1a04:	1f 91       	pop	r17
    1a06:	08 95       	ret

00001a08 <sonyPS2_calibrate>:
    1a08:	cf 93       	push	r28
    1a0a:	df 93       	push	r29
    1a0c:	ec 01       	movw	r28, r24
    1a0e:	68 a3       	std	Y+32, r22	; 0x20
    1a10:	0e 94 af 0c 	call	0x195e	; 0x195e <sonyPS2_setAnalogMode>
    1a14:	88 23       	and	r24, r24
    1a16:	a9 f0       	breq	.+42     	; 0x1a42 <sonyPS2_calibrate+0x3a>
    1a18:	ce 01       	movw	r24, r28
    1a1a:	62 e0       	ldi	r22, 0x02	; 2
    1a1c:	0e 94 37 0b 	call	0x166e	; 0x166e <sonyPS2_joystickRaw>
    1a20:	8c 8f       	std	Y+28, r24	; 0x1c
    1a22:	ce 01       	movw	r24, r28
    1a24:	63 e0       	ldi	r22, 0x03	; 3
    1a26:	0e 94 37 0b 	call	0x166e	; 0x166e <sonyPS2_joystickRaw>
    1a2a:	8d 8f       	std	Y+29, r24	; 0x1d
    1a2c:	ce 01       	movw	r24, r28
    1a2e:	64 e0       	ldi	r22, 0x04	; 4
    1a30:	0e 94 37 0b 	call	0x166e	; 0x166e <sonyPS2_joystickRaw>
    1a34:	8e 8f       	std	Y+30, r24	; 0x1e
    1a36:	ce 01       	movw	r24, r28
    1a38:	65 e0       	ldi	r22, 0x05	; 5
    1a3a:	0e 94 37 0b 	call	0x166e	; 0x166e <sonyPS2_joystickRaw>
    1a3e:	8f 8f       	std	Y+31, r24	; 0x1f
    1a40:	8f ef       	ldi	r24, 0xFF	; 255
    1a42:	df 91       	pop	r29
    1a44:	cf 91       	pop	r28
    1a46:	08 95       	ret

00001a48 <spiAbstractBusOff>:
    1a48:	cf 93       	push	r28
    1a4a:	df 93       	push	r29
    1a4c:	ec 01       	movw	r28, r24
    1a4e:	00 97       	sbiw	r24, 0x00	; 0
    1a50:	69 f0       	breq	.+26     	; 0x1a6c <spiAbstractBusOff+0x24>
    1a52:	89 85       	ldd	r24, Y+9	; 0x09
    1a54:	88 23       	and	r24, r24
    1a56:	51 f0       	breq	.+20     	; 0x1a6c <spiAbstractBusOff+0x24>
    1a58:	88 81       	ld	r24, Y
    1a5a:	99 81       	ldd	r25, Y+1	; 0x01
    1a5c:	02 96       	adiw	r24, 0x02	; 2
    1a5e:	fc 01       	movw	r30, r24
    1a60:	25 91       	lpm	r18, Z+
    1a62:	34 91       	lpm	r19, Z+
    1a64:	ce 01       	movw	r24, r28
    1a66:	f9 01       	movw	r30, r18
    1a68:	09 95       	icall
    1a6a:	19 86       	std	Y+9, r1	; 0x09
    1a6c:	df 91       	pop	r29
    1a6e:	cf 91       	pop	r28
    1a70:	08 95       	ret

00001a72 <spiAbstractBusSetMode>:
    1a72:	dc 01       	movw	r26, r24
    1a74:	00 97       	sbiw	r24, 0x00	; 0
    1a76:	69 f0       	breq	.+26     	; 0x1a92 <spiAbstractBusSetMode+0x20>
    1a78:	17 96       	adiw	r26, 0x07	; 7
    1a7a:	6c 93       	st	X, r22
    1a7c:	17 97       	sbiw	r26, 0x07	; 7
    1a7e:	8d 91       	ld	r24, X+
    1a80:	9c 91       	ld	r25, X
    1a82:	11 97       	sbiw	r26, 0x01	; 1
    1a84:	08 96       	adiw	r24, 0x08	; 8
    1a86:	fc 01       	movw	r30, r24
    1a88:	25 91       	lpm	r18, Z+
    1a8a:	34 91       	lpm	r19, Z+
    1a8c:	cd 01       	movw	r24, r26
    1a8e:	f9 01       	movw	r30, r18
    1a90:	09 95       	icall
    1a92:	08 95       	ret

00001a94 <spiAbstractBusSetDataOrder>:
    1a94:	dc 01       	movw	r26, r24
    1a96:	00 97       	sbiw	r24, 0x00	; 0
    1a98:	69 f0       	breq	.+26     	; 0x1ab4 <spiAbstractBusSetDataOrder+0x20>
    1a9a:	18 96       	adiw	r26, 0x08	; 8
    1a9c:	6c 93       	st	X, r22
    1a9e:	18 97       	sbiw	r26, 0x08	; 8
    1aa0:	8d 91       	ld	r24, X+
    1aa2:	9c 91       	ld	r25, X
    1aa4:	11 97       	sbiw	r26, 0x01	; 1
    1aa6:	06 96       	adiw	r24, 0x06	; 6
    1aa8:	fc 01       	movw	r30, r24
    1aaa:	25 91       	lpm	r18, Z+
    1aac:	34 91       	lpm	r19, Z+
    1aae:	cd 01       	movw	r24, r26
    1ab0:	f9 01       	movw	r30, r18
    1ab2:	09 95       	icall
    1ab4:	08 95       	ret

00001ab6 <spiAbstractBusSetClock>:
    1ab6:	dc 01       	movw	r26, r24
    1ab8:	00 97       	sbiw	r24, 0x00	; 0
    1aba:	69 f0       	breq	.+26     	; 0x1ad6 <spiAbstractBusSetClock+0x20>
    1abc:	16 96       	adiw	r26, 0x06	; 6
    1abe:	6c 93       	st	X, r22
    1ac0:	16 97       	sbiw	r26, 0x06	; 6
    1ac2:	8d 91       	ld	r24, X+
    1ac4:	9c 91       	ld	r25, X
    1ac6:	11 97       	sbiw	r26, 0x01	; 1
    1ac8:	04 96       	adiw	r24, 0x04	; 4
    1aca:	fc 01       	movw	r30, r24
    1acc:	25 91       	lpm	r18, Z+
    1ace:	34 91       	lpm	r19, Z+
    1ad0:	cd 01       	movw	r24, r26
    1ad2:	f9 01       	movw	r30, r18
    1ad4:	09 95       	icall
    1ad6:	08 95       	ret

00001ad8 <spiAbstractBusInit>:
    1ad8:	df 92       	push	r13
    1ada:	ef 92       	push	r14
    1adc:	ff 92       	push	r15
    1ade:	0f 93       	push	r16
    1ae0:	1f 93       	push	r17
    1ae2:	cf 93       	push	r28
    1ae4:	df 93       	push	r29
    1ae6:	ec 01       	movw	r28, r24
    1ae8:	d6 2e       	mov	r13, r22
    1aea:	00 97       	sbiw	r24, 0x00	; 0
    1aec:	79 f1       	breq	.+94     	; 0x1b4c <spiAbstractBusInit+0x74>
    1aee:	89 85       	ldd	r24, Y+9	; 0x09
    1af0:	88 23       	and	r24, r24
    1af2:	61 f5       	brne	.+88     	; 0x1b4c <spiAbstractBusInit+0x74>
    1af4:	e8 81       	ld	r30, Y
    1af6:	f9 81       	ldd	r31, Y+1	; 0x01
    1af8:	e5 90       	lpm	r14, Z+
    1afa:	f4 90       	lpm	r15, Z+
    1afc:	00 e0       	ldi	r16, 0x00	; 0
    1afe:	10 e0       	ldi	r17, 0x00	; 0
    1b00:	18 c0       	rjmp	.+48     	; 0x1b32 <spiAbstractBusInit+0x5a>
    1b02:	c8 01       	movw	r24, r16
    1b04:	88 0f       	add	r24, r24
    1b06:	99 1f       	adc	r25, r25
    1b08:	2a 81       	ldd	r18, Y+2	; 0x02
    1b0a:	3b 81       	ldd	r19, Y+3	; 0x03
    1b0c:	28 0f       	add	r18, r24
    1b0e:	39 1f       	adc	r19, r25
    1b10:	f9 01       	movw	r30, r18
    1b12:	a5 91       	lpm	r26, Z+
    1b14:	b4 91       	lpm	r27, Z+
    1b16:	11 96       	adiw	r26, 0x01	; 1
    1b18:	dc 93       	st	X, r29
    1b1a:	ce 93       	st	-X, r28
    1b1c:	14 96       	adiw	r26, 0x04	; 4
    1b1e:	8d 91       	ld	r24, X+
    1b20:	9c 91       	ld	r25, X
    1b22:	15 97       	sbiw	r26, 0x05	; 5
    1b24:	00 97       	sbiw	r24, 0x00	; 0
    1b26:	19 f0       	breq	.+6      	; 0x1b2e <spiAbstractBusInit+0x56>
    1b28:	6f ef       	ldi	r22, 0xFF	; 255
    1b2a:	0e 94 3c 12 	call	0x2478	; 0x2478 <pin_make_output>
    1b2e:	0f 5f       	subi	r16, 0xFF	; 255
    1b30:	1f 4f       	sbci	r17, 0xFF	; 255
    1b32:	8c 81       	ldd	r24, Y+4	; 0x04
    1b34:	9d 81       	ldd	r25, Y+5	; 0x05
    1b36:	08 17       	cp	r16, r24
    1b38:	19 07       	cpc	r17, r25
    1b3a:	18 f3       	brcs	.-58     	; 0x1b02 <spiAbstractBusInit+0x2a>
    1b3c:	1b 86       	std	Y+11, r1	; 0x0b
    1b3e:	1a 86       	std	Y+10, r1	; 0x0a
    1b40:	ce 01       	movw	r24, r28
    1b42:	6d 2d       	mov	r22, r13
    1b44:	f7 01       	movw	r30, r14
    1b46:	09 95       	icall
    1b48:	8f ef       	ldi	r24, 0xFF	; 255
    1b4a:	89 87       	std	Y+9, r24	; 0x09
    1b4c:	df 91       	pop	r29
    1b4e:	cf 91       	pop	r28
    1b50:	1f 91       	pop	r17
    1b52:	0f 91       	pop	r16
    1b54:	ff 90       	pop	r15
    1b56:	ef 90       	pop	r14
    1b58:	df 90       	pop	r13
    1b5a:	08 95       	ret

00001b5c <spiAbstractDeviceSelect>:
    1b5c:	ef 92       	push	r14
    1b5e:	ff 92       	push	r15
    1b60:	0f 93       	push	r16
    1b62:	1f 93       	push	r17
    1b64:	cf 93       	push	r28
    1b66:	df 93       	push	r29
    1b68:	8c 01       	movw	r16, r24
    1b6a:	fc 01       	movw	r30, r24
    1b6c:	c0 81       	ld	r28, Z
    1b6e:	d1 81       	ldd	r29, Z+1	; 0x01
    1b70:	20 97       	sbiw	r28, 0x00	; 0
    1b72:	09 f4       	brne	.+2      	; 0x1b76 <spiAbstractDeviceSelect+0x1a>
    1b74:	45 c0       	rjmp	.+138    	; 0x1c00 <spiAbstractDeviceSelect+0xa4>
    1b76:	e8 81       	ld	r30, Y
    1b78:	f9 81       	ldd	r31, Y+1	; 0x01
    1b7a:	70 96       	adiw	r30, 0x10	; 16
    1b7c:	e5 90       	lpm	r14, Z+
    1b7e:	f4 90       	lpm	r15, Z+
    1b80:	66 23       	and	r22, r22
    1b82:	41 f1       	breq	.+80     	; 0x1bd4 <spiAbstractDeviceSelect+0x78>
    1b84:	8a 85       	ldd	r24, Y+10	; 0x0a
    1b86:	9b 85       	ldd	r25, Y+11	; 0x0b
    1b88:	00 97       	sbiw	r24, 0x00	; 0
    1b8a:	19 f0       	breq	.+6      	; 0x1b92 <spiAbstractDeviceSelect+0x36>
    1b8c:	60 e0       	ldi	r22, 0x00	; 0
    1b8e:	0e 94 ae 0d 	call	0x1b5c	; 0x1b5c <spiAbstractDeviceSelect>
    1b92:	f8 01       	movw	r30, r16
    1b94:	62 81       	ldd	r22, Z+2	; 0x02
    1b96:	8f 81       	ldd	r24, Y+7	; 0x07
    1b98:	86 17       	cp	r24, r22
    1b9a:	19 f0       	breq	.+6      	; 0x1ba2 <spiAbstractDeviceSelect+0x46>
    1b9c:	ce 01       	movw	r24, r28
    1b9e:	0e 94 39 0d 	call	0x1a72	; 0x1a72 <spiAbstractBusSetMode>
    1ba2:	f8 01       	movw	r30, r16
    1ba4:	63 81       	ldd	r22, Z+3	; 0x03
    1ba6:	88 85       	ldd	r24, Y+8	; 0x08
    1ba8:	86 17       	cp	r24, r22
    1baa:	19 f0       	breq	.+6      	; 0x1bb2 <spiAbstractDeviceSelect+0x56>
    1bac:	ce 01       	movw	r24, r28
    1bae:	0e 94 4a 0d 	call	0x1a94	; 0x1a94 <spiAbstractBusSetDataOrder>
    1bb2:	e1 14       	cp	r14, r1
    1bb4:	f1 04       	cpc	r15, r1
    1bb6:	21 f0       	breq	.+8      	; 0x1bc0 <spiAbstractDeviceSelect+0x64>
    1bb8:	c8 01       	movw	r24, r16
    1bba:	6f ef       	ldi	r22, 0xFF	; 255
    1bbc:	f7 01       	movw	r30, r14
    1bbe:	09 95       	icall
    1bc0:	1b 87       	std	Y+11, r17	; 0x0b
    1bc2:	0a 87       	std	Y+10, r16	; 0x0a
    1bc4:	f8 01       	movw	r30, r16
    1bc6:	84 81       	ldd	r24, Z+4	; 0x04
    1bc8:	95 81       	ldd	r25, Z+5	; 0x05
    1bca:	00 97       	sbiw	r24, 0x00	; 0
    1bcc:	e1 f0       	breq	.+56     	; 0x1c06 <spiAbstractDeviceSelect+0xaa>
    1bce:	0e 94 9c 12 	call	0x2538	; 0x2538 <pin_low>
    1bd2:	19 c0       	rjmp	.+50     	; 0x1c06 <spiAbstractDeviceSelect+0xaa>
    1bd4:	fc 01       	movw	r30, r24
    1bd6:	84 81       	ldd	r24, Z+4	; 0x04
    1bd8:	95 81       	ldd	r25, Z+5	; 0x05
    1bda:	00 97       	sbiw	r24, 0x00	; 0
    1bdc:	11 f0       	breq	.+4      	; 0x1be2 <spiAbstractDeviceSelect+0x86>
    1bde:	0e 94 c1 12 	call	0x2582	; 0x2582 <pin_high>
    1be2:	8a 85       	ldd	r24, Y+10	; 0x0a
    1be4:	9b 85       	ldd	r25, Y+11	; 0x0b
    1be6:	80 17       	cp	r24, r16
    1be8:	91 07       	cpc	r25, r17
    1bea:	69 f4       	brne	.+26     	; 0x1c06 <spiAbstractDeviceSelect+0xaa>
    1bec:	1b 86       	std	Y+11, r1	; 0x0b
    1bee:	1a 86       	std	Y+10, r1	; 0x0a
    1bf0:	e1 14       	cp	r14, r1
    1bf2:	f1 04       	cpc	r15, r1
    1bf4:	41 f0       	breq	.+16     	; 0x1c06 <spiAbstractDeviceSelect+0xaa>
    1bf6:	c8 01       	movw	r24, r16
    1bf8:	60 e0       	ldi	r22, 0x00	; 0
    1bfa:	f7 01       	movw	r30, r14
    1bfc:	09 95       	icall
    1bfe:	03 c0       	rjmp	.+6      	; 0x1c06 <spiAbstractDeviceSelect+0xaa>
    1c00:	82 ee       	ldi	r24, 0xE2	; 226
    1c02:	0e 94 69 1b 	call	0x36d2	; 0x36d2 <setError>
    1c06:	df 91       	pop	r29
    1c08:	cf 91       	pop	r28
    1c0a:	1f 91       	pop	r17
    1c0c:	0f 91       	pop	r16
    1c0e:	ff 90       	pop	r15
    1c10:	ef 90       	pop	r14
    1c12:	08 95       	ret

00001c14 <spiAbstractDeviceSendBytes>:
    1c14:	af 92       	push	r10
    1c16:	bf 92       	push	r11
    1c18:	cf 92       	push	r12
    1c1a:	df 92       	push	r13
    1c1c:	ef 92       	push	r14
    1c1e:	ff 92       	push	r15
    1c20:	0f 93       	push	r16
    1c22:	1f 93       	push	r17
    1c24:	cf 93       	push	r28
    1c26:	df 93       	push	r29
    1c28:	ec 01       	movw	r28, r24
    1c2a:	b6 2e       	mov	r11, r22
    1c2c:	a7 2e       	mov	r10, r23
    1c2e:	7a 01       	movw	r14, r20
    1c30:	41 15       	cp	r20, r1
    1c32:	51 05       	cpc	r21, r1
    1c34:	b1 f1       	breq	.+108    	; 0x1ca2 <spiAbstractDeviceSendBytes+0x8e>
    1c36:	08 81       	ld	r16, Y
    1c38:	19 81       	ldd	r17, Y+1	; 0x01
    1c3a:	01 15       	cp	r16, r1
    1c3c:	11 05       	cpc	r17, r1
    1c3e:	71 f1       	breq	.+92     	; 0x1c9c <spiAbstractDeviceSendBytes+0x88>
    1c40:	f8 01       	movw	r30, r16
    1c42:	82 85       	ldd	r24, Z+10	; 0x0a
    1c44:	93 85       	ldd	r25, Z+11	; 0x0b
    1c46:	8c 17       	cp	r24, r28
    1c48:	9d 07       	cpc	r25, r29
    1c4a:	21 f0       	breq	.+8      	; 0x1c54 <spiAbstractDeviceSendBytes+0x40>
    1c4c:	ce 01       	movw	r24, r28
    1c4e:	6f ef       	ldi	r22, 0xFF	; 255
    1c50:	0e 94 ae 0d 	call	0x1b5c	; 0x1b5c <spiAbstractDeviceSelect>
    1c54:	f8 01       	movw	r30, r16
    1c56:	80 81       	ld	r24, Z
    1c58:	91 81       	ldd	r25, Z+1	; 0x01
    1c5a:	fc 01       	movw	r30, r24
    1c5c:	3e 96       	adiw	r30, 0x0e	; 14
    1c5e:	25 91       	lpm	r18, Z+
    1c60:	34 91       	lpm	r19, Z+
    1c62:	21 15       	cp	r18, r1
    1c64:	31 05       	cpc	r19, r1
    1c66:	39 f0       	breq	.+14     	; 0x1c76 <spiAbstractDeviceSendBytes+0x62>
    1c68:	ce 01       	movw	r24, r28
    1c6a:	6b 2d       	mov	r22, r11
    1c6c:	7a 2d       	mov	r23, r10
    1c6e:	a7 01       	movw	r20, r14
    1c70:	f9 01       	movw	r30, r18
    1c72:	09 95       	icall
    1c74:	16 c0       	rjmp	.+44     	; 0x1ca2 <spiAbstractDeviceSendBytes+0x8e>
    1c76:	fc 01       	movw	r30, r24
    1c78:	3a 96       	adiw	r30, 0x0a	; 10
    1c7a:	c5 90       	lpm	r12, Z+
    1c7c:	d4 90       	lpm	r13, Z+
    1c7e:	8b 2d       	mov	r24, r11
    1c80:	9a 2d       	mov	r25, r10
    1c82:	9c 01       	movw	r18, r24
    1c84:	e9 01       	movw	r28, r18
    1c86:	69 91       	ld	r22, Y+
    1c88:	c8 01       	movw	r24, r16
    1c8a:	f6 01       	movw	r30, r12
    1c8c:	09 95       	icall
    1c8e:	08 94       	sec
    1c90:	e1 08       	sbc	r14, r1
    1c92:	f1 08       	sbc	r15, r1
    1c94:	e1 14       	cp	r14, r1
    1c96:	f1 04       	cpc	r15, r1
    1c98:	b1 f7       	brne	.-20     	; 0x1c86 <spiAbstractDeviceSendBytes+0x72>
    1c9a:	03 c0       	rjmp	.+6      	; 0x1ca2 <spiAbstractDeviceSendBytes+0x8e>
    1c9c:	82 ee       	ldi	r24, 0xE2	; 226
    1c9e:	0e 94 69 1b 	call	0x36d2	; 0x36d2 <setError>
    1ca2:	df 91       	pop	r29
    1ca4:	cf 91       	pop	r28
    1ca6:	1f 91       	pop	r17
    1ca8:	0f 91       	pop	r16
    1caa:	ff 90       	pop	r15
    1cac:	ef 90       	pop	r14
    1cae:	df 90       	pop	r13
    1cb0:	cf 90       	pop	r12
    1cb2:	bf 90       	pop	r11
    1cb4:	af 90       	pop	r10
    1cb6:	08 95       	ret

00001cb8 <spiAbstractDeviceReceiveBytes>:
    1cb8:	8f 92       	push	r8
    1cba:	9f 92       	push	r9
    1cbc:	af 92       	push	r10
    1cbe:	bf 92       	push	r11
    1cc0:	cf 92       	push	r12
    1cc2:	df 92       	push	r13
    1cc4:	ef 92       	push	r14
    1cc6:	ff 92       	push	r15
    1cc8:	0f 93       	push	r16
    1cca:	1f 93       	push	r17
    1ccc:	cf 93       	push	r28
    1cce:	df 93       	push	r29
    1cd0:	7c 01       	movw	r14, r24
    1cd2:	96 2e       	mov	r9, r22
    1cd4:	87 2e       	mov	r8, r23
    1cd6:	6a 01       	movw	r12, r20
    1cd8:	41 15       	cp	r20, r1
    1cda:	51 05       	cpc	r21, r1
    1cdc:	09 f4       	brne	.+2      	; 0x1ce0 <spiAbstractDeviceReceiveBytes+0x28>
    1cde:	39 c0       	rjmp	.+114    	; 0x1d52 <spiAbstractDeviceReceiveBytes+0x9a>
    1ce0:	fc 01       	movw	r30, r24
    1ce2:	00 81       	ld	r16, Z
    1ce4:	11 81       	ldd	r17, Z+1	; 0x01
    1ce6:	01 15       	cp	r16, r1
    1ce8:	11 05       	cpc	r17, r1
    1cea:	81 f1       	breq	.+96     	; 0x1d4c <spiAbstractDeviceReceiveBytes+0x94>
    1cec:	f8 01       	movw	r30, r16
    1cee:	82 85       	ldd	r24, Z+10	; 0x0a
    1cf0:	93 85       	ldd	r25, Z+11	; 0x0b
    1cf2:	8e 15       	cp	r24, r14
    1cf4:	9f 05       	cpc	r25, r15
    1cf6:	21 f0       	breq	.+8      	; 0x1d00 <spiAbstractDeviceReceiveBytes+0x48>
    1cf8:	c7 01       	movw	r24, r14
    1cfa:	6f ef       	ldi	r22, 0xFF	; 255
    1cfc:	0e 94 ae 0d 	call	0x1b5c	; 0x1b5c <spiAbstractDeviceSelect>
    1d00:	f8 01       	movw	r30, r16
    1d02:	80 81       	ld	r24, Z
    1d04:	91 81       	ldd	r25, Z+1	; 0x01
    1d06:	fc 01       	movw	r30, r24
    1d08:	3c 96       	adiw	r30, 0x0c	; 12
    1d0a:	25 91       	lpm	r18, Z+
    1d0c:	34 91       	lpm	r19, Z+
    1d0e:	21 15       	cp	r18, r1
    1d10:	31 05       	cpc	r19, r1
    1d12:	39 f0       	breq	.+14     	; 0x1d22 <spiAbstractDeviceReceiveBytes+0x6a>
    1d14:	c7 01       	movw	r24, r14
    1d16:	69 2d       	mov	r22, r9
    1d18:	78 2d       	mov	r23, r8
    1d1a:	a6 01       	movw	r20, r12
    1d1c:	f9 01       	movw	r30, r18
    1d1e:	09 95       	icall
    1d20:	18 c0       	rjmp	.+48     	; 0x1d52 <spiAbstractDeviceReceiveBytes+0x9a>
    1d22:	fc 01       	movw	r30, r24
    1d24:	3a 96       	adiw	r30, 0x0a	; 10
    1d26:	a5 90       	lpm	r10, Z+
    1d28:	b4 90       	lpm	r11, Z+
    1d2a:	89 2d       	mov	r24, r9
    1d2c:	98 2d       	mov	r25, r8
    1d2e:	9c 01       	movw	r18, r24
    1d30:	e9 01       	movw	r28, r18
    1d32:	c8 01       	movw	r24, r16
    1d34:	f7 01       	movw	r30, r14
    1d36:	67 81       	ldd	r22, Z+7	; 0x07
    1d38:	f5 01       	movw	r30, r10
    1d3a:	09 95       	icall
    1d3c:	89 93       	st	Y+, r24
    1d3e:	08 94       	sec
    1d40:	c1 08       	sbc	r12, r1
    1d42:	d1 08       	sbc	r13, r1
    1d44:	c1 14       	cp	r12, r1
    1d46:	d1 04       	cpc	r13, r1
    1d48:	a1 f7       	brne	.-24     	; 0x1d32 <spiAbstractDeviceReceiveBytes+0x7a>
    1d4a:	03 c0       	rjmp	.+6      	; 0x1d52 <spiAbstractDeviceReceiveBytes+0x9a>
    1d4c:	82 ee       	ldi	r24, 0xE2	; 226
    1d4e:	0e 94 69 1b 	call	0x36d2	; 0x36d2 <setError>
    1d52:	df 91       	pop	r29
    1d54:	cf 91       	pop	r28
    1d56:	1f 91       	pop	r17
    1d58:	0f 91       	pop	r16
    1d5a:	ff 90       	pop	r15
    1d5c:	ef 90       	pop	r14
    1d5e:	df 90       	pop	r13
    1d60:	cf 90       	pop	r12
    1d62:	bf 90       	pop	r11
    1d64:	af 90       	pop	r10
    1d66:	9f 90       	pop	r9
    1d68:	8f 90       	pop	r8
    1d6a:	08 95       	ret

00001d6c <spiAbstractDeviceXferByte>:
    1d6c:	1f 93       	push	r17
    1d6e:	cf 93       	push	r28
    1d70:	df 93       	push	r29
    1d72:	fc 01       	movw	r30, r24
    1d74:	16 2f       	mov	r17, r22
    1d76:	c0 81       	ld	r28, Z
    1d78:	d1 81       	ldd	r29, Z+1	; 0x01
    1d7a:	20 97       	sbiw	r28, 0x00	; 0
    1d7c:	a1 f0       	breq	.+40     	; 0x1da6 <spiAbstractDeviceXferByte+0x3a>
    1d7e:	8a 85       	ldd	r24, Y+10	; 0x0a
    1d80:	9b 85       	ldd	r25, Y+11	; 0x0b
    1d82:	8e 17       	cp	r24, r30
    1d84:	9f 07       	cpc	r25, r31
    1d86:	21 f0       	breq	.+8      	; 0x1d90 <spiAbstractDeviceXferByte+0x24>
    1d88:	cf 01       	movw	r24, r30
    1d8a:	6f ef       	ldi	r22, 0xFF	; 255
    1d8c:	0e 94 ae 0d 	call	0x1b5c	; 0x1b5c <spiAbstractDeviceSelect>
    1d90:	88 81       	ld	r24, Y
    1d92:	99 81       	ldd	r25, Y+1	; 0x01
    1d94:	0a 96       	adiw	r24, 0x0a	; 10
    1d96:	fc 01       	movw	r30, r24
    1d98:	25 91       	lpm	r18, Z+
    1d9a:	34 91       	lpm	r19, Z+
    1d9c:	ce 01       	movw	r24, r28
    1d9e:	61 2f       	mov	r22, r17
    1da0:	f9 01       	movw	r30, r18
    1da2:	09 95       	icall
    1da4:	04 c0       	rjmp	.+8      	; 0x1dae <spiAbstractDeviceXferByte+0x42>
    1da6:	82 ee       	ldi	r24, 0xE2	; 226
    1da8:	0e 94 69 1b 	call	0x36d2	; 0x36d2 <setError>
    1dac:	80 e0       	ldi	r24, 0x00	; 0
    1dae:	df 91       	pop	r29
    1db0:	cf 91       	pop	r28
    1db2:	1f 91       	pop	r17
    1db4:	08 95       	ret

00001db6 <spiAbstractDeviceXferWord>:
    1db6:	df 92       	push	r13
    1db8:	ef 92       	push	r14
    1dba:	ff 92       	push	r15
    1dbc:	0f 93       	push	r16
    1dbe:	1f 93       	push	r17
    1dc0:	7c 01       	movw	r14, r24
    1dc2:	d6 2e       	mov	r13, r22
    1dc4:	67 2f       	mov	r22, r23
    1dc6:	0e 94 b6 0e 	call	0x1d6c	; 0x1d6c <spiAbstractDeviceXferByte>
    1dca:	18 2f       	mov	r17, r24
    1dcc:	00 e0       	ldi	r16, 0x00	; 0
    1dce:	c7 01       	movw	r24, r14
    1dd0:	6d 2d       	mov	r22, r13
    1dd2:	0e 94 b6 0e 	call	0x1d6c	; 0x1d6c <spiAbstractDeviceXferByte>
    1dd6:	28 2f       	mov	r18, r24
    1dd8:	30 e0       	ldi	r19, 0x00	; 0
    1dda:	20 2b       	or	r18, r16
    1ddc:	31 2b       	or	r19, r17
    1dde:	c9 01       	movw	r24, r18
    1de0:	1f 91       	pop	r17
    1de2:	0f 91       	pop	r16
    1de4:	ff 90       	pop	r15
    1de6:	ef 90       	pop	r14
    1de8:	df 90       	pop	r13
    1dea:	08 95       	ret

00001dec <spiAbstractDeviceReceiveWord>:
    1dec:	fc 01       	movw	r30, r24
    1dee:	87 81       	ldd	r24, Z+7	; 0x07
    1df0:	90 e0       	ldi	r25, 0x00	; 0
    1df2:	78 2f       	mov	r23, r24
    1df4:	66 27       	eor	r22, r22
    1df6:	68 2b       	or	r22, r24
    1df8:	79 2b       	or	r23, r25
    1dfa:	cf 01       	movw	r24, r30
    1dfc:	0e 94 db 0e 	call	0x1db6	; 0x1db6 <spiAbstractDeviceXferWord>
    1e00:	08 95       	ret

00001e02 <spiAbstractDeviceReceiveByte>:
    1e02:	fc 01       	movw	r30, r24
    1e04:	67 81       	ldd	r22, Z+7	; 0x07
    1e06:	0e 94 b6 0e 	call	0x1d6c	; 0x1d6c <spiAbstractDeviceXferByte>
    1e0a:	08 95       	ret

00001e0c <spiAbstractDeviceSendByte>:
    1e0c:	0e 94 b6 0e 	call	0x1d6c	; 0x1d6c <spiAbstractDeviceXferByte>
    1e10:	08 95       	ret

00001e12 <spiAbstractDeviceSendWord>:
    1e12:	ff 92       	push	r15
    1e14:	0f 93       	push	r16
    1e16:	1f 93       	push	r17
    1e18:	8c 01       	movw	r16, r24
    1e1a:	f6 2e       	mov	r15, r22
    1e1c:	67 2f       	mov	r22, r23
    1e1e:	0e 94 b6 0e 	call	0x1d6c	; 0x1d6c <spiAbstractDeviceXferByte>
    1e22:	c8 01       	movw	r24, r16
    1e24:	6f 2d       	mov	r22, r15
    1e26:	0e 94 b6 0e 	call	0x1d6c	; 0x1d6c <spiAbstractDeviceXferByte>
    1e2a:	1f 91       	pop	r17
    1e2c:	0f 91       	pop	r16
    1e2e:	ff 90       	pop	r15
    1e30:	08 95       	ret

00001e32 <_uartStartXmit>:
    1e32:	dc 01       	movw	r26, r24
    1e34:	17 96       	adiw	r26, 0x07	; 7
    1e36:	8d 91       	ld	r24, X+
    1e38:	9c 91       	ld	r25, X
    1e3a:	18 97       	sbiw	r26, 0x08	; 8
    1e3c:	02 96       	adiw	r24, 0x02	; 2
    1e3e:	fc 01       	movw	r30, r24
    1e40:	25 91       	lpm	r18, Z+
    1e42:	34 91       	lpm	r19, Z+
    1e44:	cd 01       	movw	r24, r26
    1e46:	f9 01       	movw	r30, r18
    1e48:	09 95       	icall
    1e4a:	08 95       	ret

00001e4c <_uartTransmitBlockStart>:
    1e4c:	cf 93       	push	r28
    1e4e:	df 93       	push	r29
    1e50:	ec 01       	movw	r28, r24
    1e52:	8e 81       	ldd	r24, Y+6	; 0x06
    1e54:	8e 7f       	andi	r24, 0xFE	; 254
    1e56:	8e 83       	std	Y+6, r24	; 0x06
    1e58:	ec 89       	ldd	r30, Y+20	; 0x14
    1e5a:	fd 89       	ldd	r31, Y+21	; 0x15
    1e5c:	30 97       	sbiw	r30, 0x00	; 0
    1e5e:	21 f0       	breq	.+8      	; 0x1e68 <_uartTransmitBlockStart+0x1c>
    1e60:	8e 89       	ldd	r24, Y+22	; 0x16
    1e62:	9f 89       	ldd	r25, Y+23	; 0x17
    1e64:	6f ef       	ldi	r22, 0xFF	; 255
    1e66:	09 95       	icall
    1e68:	ef 81       	ldd	r30, Y+7	; 0x07
    1e6a:	f8 85       	ldd	r31, Y+8	; 0x08
    1e6c:	38 96       	adiw	r30, 0x08	; 8
    1e6e:	25 91       	lpm	r18, Z+
    1e70:	34 91       	lpm	r19, Z+
    1e72:	21 15       	cp	r18, r1
    1e74:	31 05       	cpc	r19, r1
    1e76:	19 f0       	breq	.+6      	; 0x1e7e <_uartTransmitBlockStart+0x32>
    1e78:	ce 01       	movw	r24, r28
    1e7a:	f9 01       	movw	r30, r18
    1e7c:	09 95       	icall
    1e7e:	df 91       	pop	r29
    1e80:	cf 91       	pop	r28
    1e82:	08 95       	ret

00001e84 <_uartTransmitBlockEnd>:
    1e84:	cf 93       	push	r28
    1e86:	df 93       	push	r29
    1e88:	ec 01       	movw	r28, r24
    1e8a:	8e 81       	ldd	r24, Y+6	; 0x06
    1e8c:	81 60       	ori	r24, 0x01	; 1
    1e8e:	8e 83       	std	Y+6, r24	; 0x06
    1e90:	ef 81       	ldd	r30, Y+7	; 0x07
    1e92:	f8 85       	ldd	r31, Y+8	; 0x08
    1e94:	3a 96       	adiw	r30, 0x0a	; 10
    1e96:	25 91       	lpm	r18, Z+
    1e98:	34 91       	lpm	r19, Z+
    1e9a:	21 15       	cp	r18, r1
    1e9c:	31 05       	cpc	r19, r1
    1e9e:	19 f0       	breq	.+6      	; 0x1ea6 <_uartTransmitBlockEnd+0x22>
    1ea0:	ce 01       	movw	r24, r28
    1ea2:	f9 01       	movw	r30, r18
    1ea4:	09 95       	icall
    1ea6:	ec 89       	ldd	r30, Y+20	; 0x14
    1ea8:	fd 89       	ldd	r31, Y+21	; 0x15
    1eaa:	30 97       	sbiw	r30, 0x00	; 0
    1eac:	21 f0       	breq	.+8      	; 0x1eb6 <_uartTransmitBlockEnd+0x32>
    1eae:	8e 89       	ldd	r24, Y+22	; 0x16
    1eb0:	9f 89       	ldd	r25, Y+23	; 0x17
    1eb2:	60 e0       	ldi	r22, 0x00	; 0
    1eb4:	09 95       	icall
    1eb6:	df 91       	pop	r29
    1eb8:	cf 91       	pop	r28
    1eba:	08 95       	ret

00001ebc <_uartSetBaudRate>:
    1ebc:	dc 01       	movw	r26, r24
    1ebe:	17 96       	adiw	r26, 0x07	; 7
    1ec0:	8d 91       	ld	r24, X+
    1ec2:	9c 91       	ld	r25, X
    1ec4:	18 97       	sbiw	r26, 0x08	; 8
    1ec6:	fc 01       	movw	r30, r24
    1ec8:	25 91       	lpm	r18, Z+
    1eca:	34 91       	lpm	r19, Z+
    1ecc:	cd 01       	movw	r24, r26
    1ece:	f9 01       	movw	r30, r18
    1ed0:	09 95       	icall
    1ed2:	08 95       	ret

00001ed4 <_uartOff>:
    1ed4:	dc 01       	movw	r26, r24
    1ed6:	17 96       	adiw	r26, 0x07	; 7
    1ed8:	ed 91       	ld	r30, X+
    1eda:	fc 91       	ld	r31, X
    1edc:	18 97       	sbiw	r26, 0x08	; 8
    1ede:	36 96       	adiw	r30, 0x06	; 6
    1ee0:	25 91       	lpm	r18, Z+
    1ee2:	34 91       	lpm	r19, Z+
    1ee4:	9f b7       	in	r25, 0x3f	; 63
    1ee6:	78 94       	sei
    1ee8:	16 96       	adiw	r26, 0x06	; 6
    1eea:	8c 91       	ld	r24, X
    1eec:	16 97       	sbiw	r26, 0x06	; 6
    1eee:	80 ff       	sbrs	r24, 0
    1ef0:	fb cf       	rjmp	.-10     	; 0x1ee8 <_uartOff+0x14>
    1ef2:	9f bf       	out	0x3f, r25	; 63
    1ef4:	cd 01       	movw	r24, r26
    1ef6:	f9 01       	movw	r30, r18
    1ef8:	09 95       	icall
    1efa:	08 95       	ret

00001efc <__uartReceiveBufferIsEmpty>:
    1efc:	dc 01       	movw	r26, r24
    1efe:	ed 91       	ld	r30, X+
    1f00:	fc 91       	ld	r31, X
    1f02:	11 97       	sbiw	r26, 0x01	; 1
    1f04:	30 97       	sbiw	r30, 0x00	; 0
    1f06:	59 f0       	breq	.+22     	; 0x1f1e <__uartReceiveBufferIsEmpty+0x22>
    1f08:	2f b7       	in	r18, 0x3f	; 63
    1f0a:	f8 94       	cli
    1f0c:	84 81       	ldd	r24, Z+4	; 0x04
    1f0e:	95 81       	ldd	r25, Z+5	; 0x05
    1f10:	89 2b       	or	r24, r25
    1f12:	11 f0       	breq	.+4      	; 0x1f18 <__uartReceiveBufferIsEmpty+0x1c>
    1f14:	80 e0       	ldi	r24, 0x00	; 0
    1f16:	01 c0       	rjmp	.+2      	; 0x1f1a <__uartReceiveBufferIsEmpty+0x1e>
    1f18:	8f ef       	ldi	r24, 0xFF	; 255
    1f1a:	2f bf       	out	0x3f, r18	; 63
    1f1c:	08 95       	ret
    1f1e:	2f b7       	in	r18, 0x3f	; 63
    1f20:	f8 94       	cli
    1f22:	19 96       	adiw	r26, 0x09	; 9
    1f24:	8d 91       	ld	r24, X+
    1f26:	9c 91       	ld	r25, X
    1f28:	1a 97       	sbiw	r26, 0x0a	; 10
    1f2a:	8f 5f       	subi	r24, 0xFF	; 255
    1f2c:	9f 4f       	sbci	r25, 0xFF	; 255
    1f2e:	11 f0       	breq	.+4      	; 0x1f34 <__uartReceiveBufferIsEmpty+0x38>
    1f30:	80 e0       	ldi	r24, 0x00	; 0
    1f32:	01 c0       	rjmp	.+2      	; 0x1f36 <__uartReceiveBufferIsEmpty+0x3a>
    1f34:	8f ef       	ldi	r24, 0xFF	; 255
    1f36:	2f bf       	out	0x3f, r18	; 63
    1f38:	08 95       	ret

00001f3a <__uartFlushReceiveBuffer>:
    1f3a:	fc 01       	movw	r30, r24
    1f3c:	80 81       	ld	r24, Z
    1f3e:	91 81       	ldd	r25, Z+1	; 0x01
    1f40:	00 97       	sbiw	r24, 0x00	; 0
    1f42:	19 f0       	breq	.+6      	; 0x1f4a <__uartFlushReceiveBuffer+0x10>
    1f44:	0e 94 3e 11 	call	0x227c	; 0x227c <bufferFlush>
    1f48:	08 95       	ret
    1f4a:	2f b7       	in	r18, 0x3f	; 63
    1f4c:	f8 94       	cli
    1f4e:	8f ef       	ldi	r24, 0xFF	; 255
    1f50:	9f ef       	ldi	r25, 0xFF	; 255
    1f52:	92 87       	std	Z+10, r25	; 0x0a
    1f54:	81 87       	std	Z+9, r24	; 0x09
    1f56:	2f bf       	out	0x3f, r18	; 63
    1f58:	08 95       	ret

00001f5a <_uartInit>:
    1f5a:	ef 92       	push	r14
    1f5c:	ff 92       	push	r15
    1f5e:	0f 93       	push	r16
    1f60:	1f 93       	push	r17
    1f62:	cf 93       	push	r28
    1f64:	df 93       	push	r29
    1f66:	ec 01       	movw	r28, r24
    1f68:	7a 01       	movw	r14, r20
    1f6a:	8b 01       	movw	r16, r22
    1f6c:	f8 94       	cli
    1f6e:	8b 89       	ldd	r24, Y+19	; 0x13
    1f70:	88 23       	and	r24, r24
    1f72:	81 f0       	breq	.+32     	; 0x1f94 <_uartInit+0x3a>
    1f74:	2b 85       	ldd	r18, Y+11	; 0x0b
    1f76:	3c 85       	ldd	r19, Y+12	; 0x0c
    1f78:	8d 85       	ldd	r24, Y+13	; 0x0d
    1f7a:	9e 85       	ldd	r25, Y+14	; 0x0e
    1f7c:	28 17       	cp	r18, r24
    1f7e:	39 07       	cpc	r19, r25
    1f80:	21 f0       	breq	.+8      	; 0x1f8a <_uartInit+0x30>
    1f82:	c9 01       	movw	r24, r18
    1f84:	60 e0       	ldi	r22, 0x00	; 0
    1f86:	0e 94 15 12 	call	0x242a	; 0x242a <pin_make_input>
    1f8a:	8d 85       	ldd	r24, Y+13	; 0x0d
    1f8c:	9e 85       	ldd	r25, Y+14	; 0x0e
    1f8e:	6f ef       	ldi	r22, 0xFF	; 255
    1f90:	0e 94 15 12 	call	0x242a	; 0x242a <pin_make_input>
    1f94:	8e 81       	ldd	r24, Y+6	; 0x06
    1f96:	81 60       	ori	r24, 0x01	; 1
    1f98:	8e 83       	std	Y+6, r24	; 0x06
    1f9a:	8e 81       	ldd	r24, Y+6	; 0x06
    1f9c:	8b 7f       	andi	r24, 0xFB	; 251
    1f9e:	8e 83       	std	Y+6, r24	; 0x06
    1fa0:	8e 81       	ldd	r24, Y+6	; 0x06
    1fa2:	8d 7f       	andi	r24, 0xFD	; 253
    1fa4:	8e 83       	std	Y+6, r24	; 0x06
    1fa6:	8f 81       	ldd	r24, Y+7	; 0x07
    1fa8:	98 85       	ldd	r25, Y+8	; 0x08
    1faa:	04 96       	adiw	r24, 0x04	; 4
    1fac:	fc 01       	movw	r30, r24
    1fae:	25 91       	lpm	r18, Z+
    1fb0:	34 91       	lpm	r19, Z+
    1fb2:	ce 01       	movw	r24, r28
    1fb4:	b8 01       	movw	r22, r16
    1fb6:	a7 01       	movw	r20, r14
    1fb8:	f9 01       	movw	r30, r18
    1fba:	09 95       	icall
    1fbc:	78 94       	sei
    1fbe:	df 91       	pop	r29
    1fc0:	cf 91       	pop	r28
    1fc2:	1f 91       	pop	r17
    1fc4:	0f 91       	pop	r16
    1fc6:	ff 90       	pop	r15
    1fc8:	ef 90       	pop	r14
    1fca:	08 95       	ret

00001fcc <_uartSendByte>:
    1fcc:	0f 93       	push	r16
    1fce:	1f 93       	push	r17
    1fd0:	cf 93       	push	r28
    1fd2:	df 93       	push	r29
    1fd4:	ec 01       	movw	r28, r24
    1fd6:	06 2f       	mov	r16, r22
    1fd8:	8a 81       	ldd	r24, Y+2	; 0x02
    1fda:	9b 81       	ldd	r25, Y+3	; 0x03
    1fdc:	89 2b       	or	r24, r25
    1fde:	19 f4       	brne	.+6      	; 0x1fe6 <_uartSendByte+0x1a>
    1fe0:	19 c0       	rjmp	.+50     	; 0x2014 <_uartSendByte+0x48>
    1fe2:	0e 94 47 11 	call	0x228e	; 0x228e <breathe>
    1fe6:	8a 81       	ldd	r24, Y+2	; 0x02
    1fe8:	9b 81       	ldd	r25, Y+3	; 0x03
    1fea:	0e 94 36 11 	call	0x226c	; 0x226c <bufferIsFull>
    1fee:	88 23       	and	r24, r24
    1ff0:	c1 f7       	brne	.-16     	; 0x1fe2 <_uartSendByte+0x16>
    1ff2:	1f b7       	in	r17, 0x3f	; 63
    1ff4:	f8 94       	cli
    1ff6:	8e 81       	ldd	r24, Y+6	; 0x06
    1ff8:	81 fd       	sbrc	r24, 1
    1ffa:	04 c0       	rjmp	.+8      	; 0x2004 <_uartSendByte+0x38>
    1ffc:	8e 81       	ldd	r24, Y+6	; 0x06
    1ffe:	82 60       	ori	r24, 0x02	; 2
    2000:	8e 83       	std	Y+6, r24	; 0x06
    2002:	0d c0       	rjmp	.+26     	; 0x201e <_uartSendByte+0x52>
    2004:	8a 81       	ldd	r24, Y+2	; 0x02
    2006:	9b 81       	ldd	r25, Y+3	; 0x03
    2008:	60 2f       	mov	r22, r16
    200a:	0e 94 f2 10 	call	0x21e4	; 0x21e4 <bufferPut>
    200e:	0e c0       	rjmp	.+28     	; 0x202c <_uartSendByte+0x60>
    2010:	0e 94 47 11 	call	0x228e	; 0x228e <breathe>
    2014:	8e 81       	ldd	r24, Y+6	; 0x06
    2016:	80 ff       	sbrs	r24, 0
    2018:	fb cf       	rjmp	.-10     	; 0x2010 <_uartSendByte+0x44>
    201a:	1f b7       	in	r17, 0x3f	; 63
    201c:	f8 94       	cli
    201e:	ce 01       	movw	r24, r28
    2020:	0e 94 26 0f 	call	0x1e4c	; 0x1e4c <_uartTransmitBlockStart>
    2024:	ce 01       	movw	r24, r28
    2026:	60 2f       	mov	r22, r16
    2028:	0e 94 19 0f 	call	0x1e32	; 0x1e32 <_uartStartXmit>
    202c:	1f bf       	out	0x3f, r17	; 63
    202e:	80 2f       	mov	r24, r16
    2030:	df 91       	pop	r29
    2032:	cf 91       	pop	r28
    2034:	1f 91       	pop	r17
    2036:	0f 91       	pop	r16
    2038:	08 95       	ret

0000203a <_uartSendBuffer>:
    203a:	ef 92       	push	r14
    203c:	ff 92       	push	r15
    203e:	0f 93       	push	r16
    2040:	1f 93       	push	r17
    2042:	cf 93       	push	r28
    2044:	df 93       	push	r29
    2046:	7c 01       	movw	r14, r24
    2048:	8b 01       	movw	r16, r22
    204a:	ea 01       	movw	r28, r20
    204c:	07 c0       	rjmp	.+14     	; 0x205c <_uartSendBuffer+0x22>
    204e:	f8 01       	movw	r30, r16
    2050:	61 91       	ld	r22, Z+
    2052:	8f 01       	movw	r16, r30
    2054:	c7 01       	movw	r24, r14
    2056:	0e 94 e6 0f 	call	0x1fcc	; 0x1fcc <_uartSendByte>
    205a:	21 97       	sbiw	r28, 0x01	; 1
    205c:	20 97       	sbiw	r28, 0x00	; 0
    205e:	b9 f7       	brne	.-18     	; 0x204e <_uartSendBuffer+0x14>
    2060:	df 91       	pop	r29
    2062:	cf 91       	pop	r28
    2064:	1f 91       	pop	r17
    2066:	0f 91       	pop	r16
    2068:	ff 90       	pop	r15
    206a:	ef 90       	pop	r14
    206c:	08 95       	ret

0000206e <__uartGetByte>:
    206e:	df 93       	push	r29
    2070:	cf 93       	push	r28
    2072:	0f 92       	push	r0
    2074:	cd b7       	in	r28, 0x3d	; 61
    2076:	de b7       	in	r29, 0x3e	; 62
    2078:	fc 01       	movw	r30, r24
    207a:	80 81       	ld	r24, Z
    207c:	91 81       	ldd	r25, Z+1	; 0x01
    207e:	00 97       	sbiw	r24, 0x00	; 0
    2080:	71 f0       	breq	.+28     	; 0x209e <__uartGetByte+0x30>
    2082:	be 01       	movw	r22, r28
    2084:	6f 5f       	subi	r22, 0xFF	; 255
    2086:	7f 4f       	sbci	r23, 0xFF	; 255
    2088:	0e 94 c5 10 	call	0x218a	; 0x218a <bufferGet>
    208c:	88 23       	and	r24, r24
    208e:	19 f4       	brne	.+6      	; 0x2096 <__uartGetByte+0x28>
    2090:	4f ef       	ldi	r20, 0xFF	; 255
    2092:	5f ef       	ldi	r21, 0xFF	; 255
    2094:	0d c0       	rjmp	.+26     	; 0x20b0 <__uartGetByte+0x42>
    2096:	89 81       	ldd	r24, Y+1	; 0x01
    2098:	48 2f       	mov	r20, r24
    209a:	50 e0       	ldi	r21, 0x00	; 0
    209c:	09 c0       	rjmp	.+18     	; 0x20b0 <__uartGetByte+0x42>
    209e:	2f b7       	in	r18, 0x3f	; 63
    20a0:	f8 94       	cli
    20a2:	41 85       	ldd	r20, Z+9	; 0x09
    20a4:	52 85       	ldd	r21, Z+10	; 0x0a
    20a6:	8f ef       	ldi	r24, 0xFF	; 255
    20a8:	9f ef       	ldi	r25, 0xFF	; 255
    20aa:	92 87       	std	Z+10, r25	; 0x0a
    20ac:	81 87       	std	Z+9, r24	; 0x09
    20ae:	2f bf       	out	0x3f, r18	; 63
    20b0:	ca 01       	movw	r24, r20
    20b2:	0f 90       	pop	r0
    20b4:	cf 91       	pop	r28
    20b6:	df 91       	pop	r29
    20b8:	08 95       	ret

000020ba <__uartTransmitService>:
    20ba:	ef 92       	push	r14
    20bc:	ff 92       	push	r15
    20be:	1f 93       	push	r17
    20c0:	df 93       	push	r29
    20c2:	cf 93       	push	r28
    20c4:	0f 92       	push	r0
    20c6:	cd b7       	in	r28, 0x3d	; 61
    20c8:	de b7       	in	r29, 0x3e	; 62
    20ca:	7c 01       	movw	r14, r24
    20cc:	fc 01       	movw	r30, r24
    20ce:	86 81       	ldd	r24, Z+6	; 0x06
    20d0:	81 ff       	sbrs	r24, 1
    20d2:	19 c0       	rjmp	.+50     	; 0x2106 <__uartTransmitService+0x4c>
    20d4:	1f b7       	in	r17, 0x3f	; 63
    20d6:	f8 94       	cli
    20d8:	f7 01       	movw	r30, r14
    20da:	82 81       	ldd	r24, Z+2	; 0x02
    20dc:	93 81       	ldd	r25, Z+3	; 0x03
    20de:	be 01       	movw	r22, r28
    20e0:	6f 5f       	subi	r22, 0xFF	; 255
    20e2:	7f 4f       	sbci	r23, 0xFF	; 255
    20e4:	0e 94 c5 10 	call	0x218a	; 0x218a <bufferGet>
    20e8:	88 23       	and	r24, r24
    20ea:	29 f0       	breq	.+10     	; 0x20f6 <__uartTransmitService+0x3c>
    20ec:	c7 01       	movw	r24, r14
    20ee:	69 81       	ldd	r22, Y+1	; 0x01
    20f0:	0e 94 19 0f 	call	0x1e32	; 0x1e32 <_uartStartXmit>
    20f4:	0d c0       	rjmp	.+26     	; 0x2110 <__uartTransmitService+0x56>
    20f6:	c7 01       	movw	r24, r14
    20f8:	0e 94 42 0f 	call	0x1e84	; 0x1e84 <_uartTransmitBlockEnd>
    20fc:	f7 01       	movw	r30, r14
    20fe:	86 81       	ldd	r24, Z+6	; 0x06
    2100:	8d 7f       	andi	r24, 0xFD	; 253
    2102:	86 83       	std	Z+6, r24	; 0x06
    2104:	05 c0       	rjmp	.+10     	; 0x2110 <__uartTransmitService+0x56>
    2106:	1f b7       	in	r17, 0x3f	; 63
    2108:	f8 94       	cli
    210a:	c7 01       	movw	r24, r14
    210c:	0e 94 42 0f 	call	0x1e84	; 0x1e84 <_uartTransmitBlockEnd>
    2110:	1f bf       	out	0x3f, r17	; 63
    2112:	0f 90       	pop	r0
    2114:	cf 91       	pop	r28
    2116:	df 91       	pop	r29
    2118:	1f 91       	pop	r17
    211a:	ff 90       	pop	r15
    211c:	ef 90       	pop	r14
    211e:	08 95       	ret

00002120 <__uartReceiveService>:
    2120:	cf 93       	push	r28
    2122:	df 93       	push	r29
    2124:	ec 01       	movw	r28, r24
    2126:	8c 81       	ldd	r24, Y+4	; 0x04
    2128:	9d 81       	ldd	r25, Y+5	; 0x05
    212a:	89 2b       	or	r24, r25
    212c:	29 f0       	breq	.+10     	; 0x2138 <__uartReceiveService+0x18>
    212e:	ec 81       	ldd	r30, Y+4	; 0x04
    2130:	fd 81       	ldd	r31, Y+5	; 0x05
    2132:	86 2f       	mov	r24, r22
    2134:	09 95       	icall
    2136:	19 c0       	rjmp	.+50     	; 0x216a <__uartReceiveService+0x4a>
    2138:	88 81       	ld	r24, Y
    213a:	99 81       	ldd	r25, Y+1	; 0x01
    213c:	00 97       	sbiw	r24, 0x00	; 0
    213e:	29 f0       	breq	.+10     	; 0x214a <__uartReceiveService+0x2a>
    2140:	0e 94 f2 10 	call	0x21e4	; 0x21e4 <bufferPut>
    2144:	88 23       	and	r24, r24
    2146:	89 f4       	brne	.+34     	; 0x216a <__uartReceiveService+0x4a>
    2148:	0a c0       	rjmp	.+20     	; 0x215e <__uartReceiveService+0x3e>
    214a:	89 85       	ldd	r24, Y+9	; 0x09
    214c:	9a 85       	ldd	r25, Y+10	; 0x0a
    214e:	8f 5f       	subi	r24, 0xFF	; 255
    2150:	9f 4f       	sbci	r25, 0xFF	; 255
    2152:	29 f4       	brne	.+10     	; 0x215e <__uartReceiveService+0x3e>
    2154:	86 2f       	mov	r24, r22
    2156:	90 e0       	ldi	r25, 0x00	; 0
    2158:	9a 87       	std	Y+10, r25	; 0x0a
    215a:	89 87       	std	Y+9, r24	; 0x09
    215c:	06 c0       	rjmp	.+12     	; 0x216a <__uartReceiveService+0x4a>
    215e:	8e 81       	ldd	r24, Y+6	; 0x06
    2160:	84 60       	ori	r24, 0x04	; 4
    2162:	8e 83       	std	Y+6, r24	; 0x06
    2164:	85 ef       	ldi	r24, 0xF5	; 245
    2166:	0e 94 69 1b 	call	0x36d2	; 0x36d2 <setError>
    216a:	df 91       	pop	r29
    216c:	cf 91       	pop	r28
    216e:	08 95       	ret

00002170 <bufferInit>:
    2170:	fc 01       	movw	r30, r24
    2172:	8f b7       	in	r24, 0x3f	; 63
    2174:	f8 94       	cli
    2176:	71 83       	std	Z+1, r23	; 0x01
    2178:	60 83       	st	Z, r22
    217a:	53 83       	std	Z+3, r21	; 0x03
    217c:	42 83       	std	Z+2, r20	; 0x02
    217e:	15 82       	std	Z+5, r1	; 0x05
    2180:	14 82       	std	Z+4, r1	; 0x04
    2182:	17 82       	std	Z+7, r1	; 0x07
    2184:	16 82       	std	Z+6, r1	; 0x06
    2186:	8f bf       	out	0x3f, r24	; 63
    2188:	08 95       	ret

0000218a <bufferGet>:
    218a:	cf 93       	push	r28
    218c:	df 93       	push	r29
    218e:	ec 01       	movw	r28, r24
    2190:	db 01       	movw	r26, r22
    2192:	2f b7       	in	r18, 0x3f	; 63
    2194:	f8 94       	cli
    2196:	00 97       	sbiw	r24, 0x00	; 0
    2198:	01 f1       	breq	.+64     	; 0x21da <bufferGet+0x50>
    219a:	8a 81       	ldd	r24, Y+2	; 0x02
    219c:	9b 81       	ldd	r25, Y+3	; 0x03
    219e:	89 2b       	or	r24, r25
    21a0:	e1 f0       	breq	.+56     	; 0x21da <bufferGet+0x50>
    21a2:	8c 81       	ldd	r24, Y+4	; 0x04
    21a4:	9d 81       	ldd	r25, Y+5	; 0x05
    21a6:	89 2b       	or	r24, r25
    21a8:	c1 f0       	breq	.+48     	; 0x21da <bufferGet+0x50>
    21aa:	e8 81       	ld	r30, Y
    21ac:	f9 81       	ldd	r31, Y+1	; 0x01
    21ae:	8e 81       	ldd	r24, Y+6	; 0x06
    21b0:	9f 81       	ldd	r25, Y+7	; 0x07
    21b2:	e8 0f       	add	r30, r24
    21b4:	f9 1f       	adc	r31, r25
    21b6:	80 81       	ld	r24, Z
    21b8:	8c 93       	st	X, r24
    21ba:	8e 81       	ldd	r24, Y+6	; 0x06
    21bc:	9f 81       	ldd	r25, Y+7	; 0x07
    21be:	6a 81       	ldd	r22, Y+2	; 0x02
    21c0:	7b 81       	ldd	r23, Y+3	; 0x03
    21c2:	01 96       	adiw	r24, 0x01	; 1
    21c4:	0e 94 e1 27 	call	0x4fc2	; 0x4fc2 <__udivmodhi4>
    21c8:	9f 83       	std	Y+7, r25	; 0x07
    21ca:	8e 83       	std	Y+6, r24	; 0x06
    21cc:	8c 81       	ldd	r24, Y+4	; 0x04
    21ce:	9d 81       	ldd	r25, Y+5	; 0x05
    21d0:	01 97       	sbiw	r24, 0x01	; 1
    21d2:	9d 83       	std	Y+5, r25	; 0x05
    21d4:	8c 83       	std	Y+4, r24	; 0x04
    21d6:	8f ef       	ldi	r24, 0xFF	; 255
    21d8:	01 c0       	rjmp	.+2      	; 0x21dc <bufferGet+0x52>
    21da:	80 e0       	ldi	r24, 0x00	; 0
    21dc:	2f bf       	out	0x3f, r18	; 63
    21de:	df 91       	pop	r29
    21e0:	cf 91       	pop	r28
    21e2:	08 95       	ret

000021e4 <bufferPut>:
    21e4:	1f 93       	push	r17
    21e6:	cf 93       	push	r28
    21e8:	df 93       	push	r29
    21ea:	ec 01       	movw	r28, r24
    21ec:	46 2f       	mov	r20, r22
    21ee:	1f b7       	in	r17, 0x3f	; 63
    21f0:	f8 94       	cli
    21f2:	2c 81       	ldd	r18, Y+4	; 0x04
    21f4:	3d 81       	ldd	r19, Y+5	; 0x05
    21f6:	6a 81       	ldd	r22, Y+2	; 0x02
    21f8:	7b 81       	ldd	r23, Y+3	; 0x03
    21fa:	26 17       	cp	r18, r22
    21fc:	37 07       	cpc	r19, r23
    21fe:	10 f0       	brcs	.+4      	; 0x2204 <bufferPut+0x20>
    2200:	80 e0       	ldi	r24, 0x00	; 0
    2202:	11 c0       	rjmp	.+34     	; 0x2226 <bufferPut+0x42>
    2204:	8e 81       	ldd	r24, Y+6	; 0x06
    2206:	9f 81       	ldd	r25, Y+7	; 0x07
    2208:	82 0f       	add	r24, r18
    220a:	93 1f       	adc	r25, r19
    220c:	0e 94 e1 27 	call	0x4fc2	; 0x4fc2 <__udivmodhi4>
    2210:	e8 81       	ld	r30, Y
    2212:	f9 81       	ldd	r31, Y+1	; 0x01
    2214:	e8 0f       	add	r30, r24
    2216:	f9 1f       	adc	r31, r25
    2218:	40 83       	st	Z, r20
    221a:	8c 81       	ldd	r24, Y+4	; 0x04
    221c:	9d 81       	ldd	r25, Y+5	; 0x05
    221e:	01 96       	adiw	r24, 0x01	; 1
    2220:	9d 83       	std	Y+5, r25	; 0x05
    2222:	8c 83       	std	Y+4, r24	; 0x04
    2224:	8f ef       	ldi	r24, 0xFF	; 255
    2226:	1f bf       	out	0x3f, r17	; 63
    2228:	df 91       	pop	r29
    222a:	cf 91       	pop	r28
    222c:	1f 91       	pop	r17
    222e:	08 95       	ret

00002230 <bufferFreeSpace>:
    2230:	fc 01       	movw	r30, r24
    2232:	4f b7       	in	r20, 0x3f	; 63
    2234:	f8 94       	cli
    2236:	00 97       	sbiw	r24, 0x00	; 0
    2238:	19 f4       	brne	.+6      	; 0x2240 <bufferFreeSpace+0x10>
    223a:	20 e0       	ldi	r18, 0x00	; 0
    223c:	30 e0       	ldi	r19, 0x00	; 0
    223e:	06 c0       	rjmp	.+12     	; 0x224c <bufferFreeSpace+0x1c>
    2240:	22 81       	ldd	r18, Z+2	; 0x02
    2242:	33 81       	ldd	r19, Z+3	; 0x03
    2244:	84 81       	ldd	r24, Z+4	; 0x04
    2246:	95 81       	ldd	r25, Z+5	; 0x05
    2248:	28 1b       	sub	r18, r24
    224a:	39 0b       	sbc	r19, r25
    224c:	4f bf       	out	0x3f, r20	; 63
    224e:	c9 01       	movw	r24, r18
    2250:	08 95       	ret

00002252 <bufferBytesUsed>:
    2252:	fc 01       	movw	r30, r24
    2254:	8f b7       	in	r24, 0x3f	; 63
    2256:	f8 94       	cli
    2258:	30 97       	sbiw	r30, 0x00	; 0
    225a:	19 f4       	brne	.+6      	; 0x2262 <bufferBytesUsed+0x10>
    225c:	20 e0       	ldi	r18, 0x00	; 0
    225e:	30 e0       	ldi	r19, 0x00	; 0
    2260:	02 c0       	rjmp	.+4      	; 0x2266 <bufferBytesUsed+0x14>
    2262:	24 81       	ldd	r18, Z+4	; 0x04
    2264:	35 81       	ldd	r19, Z+5	; 0x05
    2266:	8f bf       	out	0x3f, r24	; 63
    2268:	c9 01       	movw	r24, r18
    226a:	08 95       	ret

0000226c <bufferIsFull>:
    226c:	0e 94 18 11 	call	0x2230	; 0x2230 <bufferFreeSpace>
    2270:	89 2b       	or	r24, r25
    2272:	11 f0       	breq	.+4      	; 0x2278 <bufferIsFull+0xc>
    2274:	80 e0       	ldi	r24, 0x00	; 0
    2276:	08 95       	ret
    2278:	8f ef       	ldi	r24, 0xFF	; 255
    227a:	08 95       	ret

0000227c <bufferFlush>:
    227c:	fc 01       	movw	r30, r24
    227e:	00 97       	sbiw	r24, 0x00	; 0
    2280:	29 f0       	breq	.+10     	; 0x228c <bufferFlush+0x10>
    2282:	8f b7       	in	r24, 0x3f	; 63
    2284:	f8 94       	cli
    2286:	15 82       	std	Z+5, r1	; 0x05
    2288:	14 82       	std	Z+4, r1	; 0x04
    228a:	8f bf       	out	0x3f, r24	; 63
    228c:	08 95       	ret

0000228e <breathe>:
    228e:	8f b7       	in	r24, 0x3f	; 63
    2290:	78 94       	sei
	...
    229e:	00 00       	nop
    22a0:	8f bf       	out	0x3f, r24	; 63
    22a2:	08 95       	ret

000022a4 <__portMaskSet>:
    22a4:	9c 01       	movw	r18, r24
    22a6:	fc 01       	movw	r30, r24
    22a8:	a5 91       	lpm	r26, Z+
    22aa:	b4 91       	lpm	r27, Z+
    22ac:	2e 5f       	subi	r18, 0xFE	; 254
    22ae:	3f 4f       	sbci	r19, 0xFF	; 255
    22b0:	f9 01       	movw	r30, r18
    22b2:	94 91       	lpm	r25, Z+
    22b4:	8c 91       	ld	r24, X
    22b6:	89 2b       	or	r24, r25
    22b8:	8c 93       	st	X, r24
    22ba:	08 95       	ret

000022bc <__portMaskGet>:
    22bc:	9c 01       	movw	r18, r24
    22be:	fc 01       	movw	r30, r24
    22c0:	a5 91       	lpm	r26, Z+
    22c2:	b4 91       	lpm	r27, Z+
    22c4:	2e 5f       	subi	r18, 0xFE	; 254
    22c6:	3f 4f       	sbci	r19, 0xFF	; 255
    22c8:	f9 01       	movw	r30, r18
    22ca:	94 91       	lpm	r25, Z+
    22cc:	8c 91       	ld	r24, X
    22ce:	89 23       	and	r24, r25
    22d0:	09 f0       	breq	.+2      	; 0x22d4 <__portMaskGet+0x18>
    22d2:	8f ef       	ldi	r24, 0xFF	; 255
    22d4:	08 95       	ret

000022d6 <__portMaskClear>:
    22d6:	9c 01       	movw	r18, r24
    22d8:	fc 01       	movw	r30, r24
    22da:	a5 91       	lpm	r26, Z+
    22dc:	b4 91       	lpm	r27, Z+
    22de:	2e 5f       	subi	r18, 0xFE	; 254
    22e0:	3f 4f       	sbci	r19, 0xFF	; 255
    22e2:	f9 01       	movw	r30, r18
    22e4:	94 91       	lpm	r25, Z+
    22e6:	8c 91       	ld	r24, X
    22e8:	90 95       	com	r25
    22ea:	89 23       	and	r24, r25
    22ec:	8c 93       	st	X, r24
    22ee:	08 95       	ret

000022f0 <main>:
    22f0:	6f 92       	push	r6
    22f2:	7f 92       	push	r7
    22f4:	8f 92       	push	r8
    22f6:	9f 92       	push	r9
    22f8:	af 92       	push	r10
    22fa:	bf 92       	push	r11
    22fc:	cf 92       	push	r12
    22fe:	df 92       	push	r13
    2300:	ef 92       	push	r14
    2302:	ff 92       	push	r15
    2304:	0f 93       	push	r16
    2306:	1f 93       	push	r17
    2308:	0e 94 98 01 	call	0x330	; 0x330 <configure_ports>
    230c:	0e 94 99 01 	call	0x332	; 0x332 <registerLED>
    2310:	0e 94 a5 1e 	call	0x3d4a	; 0x3d4a <initTimers>
    2314:	0e 94 9a 01 	call	0x334	; 0x334 <sysInitHardware>
    2318:	0e 94 a6 01 	call	0x34c	; 0x34c <appInitHardware>
    231c:	0e 94 3c 1f 	call	0x3e78	; 0x3e78 <__clockInit>
    2320:	0e 94 62 1b 	call	0x36c4	; 0x36c4 <clockGetus>
    2324:	5b 01       	movw	r10, r22
    2326:	6c 01       	movw	r12, r24
    2328:	0e 94 58 02 	call	0x4b0	; 0x4b0 <appInitSoftware>
    232c:	7b 01       	movw	r14, r22
    232e:	8c 01       	movw	r16, r24
    2330:	66 24       	eor	r6, r6
    2332:	77 24       	eor	r7, r7
    2334:	43 01       	movw	r8, r6
    2336:	0e 94 47 11 	call	0x228e	; 0x228e <breathe>
    233a:	e1 14       	cp	r14, r1
    233c:	f1 04       	cpc	r15, r1
    233e:	01 05       	cpc	r16, r1
    2340:	11 05       	cpc	r17, r1
    2342:	19 f4       	brne	.+6      	; 0x234a <main+0x5a>
    2344:	0a c0       	rjmp	.+20     	; 0x235a <main+0x6a>
    2346:	0e 94 47 11 	call	0x228e	; 0x228e <breathe>
    234a:	c6 01       	movw	r24, r12
    234c:	b5 01       	movw	r22, r10
    234e:	a8 01       	movw	r20, r16
    2350:	97 01       	movw	r18, r14
    2352:	0e 94 08 21 	call	0x4210	; 0x4210 <clockHasElapsed>
    2356:	88 23       	and	r24, r24
    2358:	b1 f3       	breq	.-20     	; 0x2346 <main+0x56>
    235a:	0e 94 62 1b 	call	0x36c4	; 0x36c4 <clockGetus>
    235e:	5b 01       	movw	r10, r22
    2360:	6c 01       	movw	r12, r24
    2362:	08 94       	sec
    2364:	61 1c       	adc	r6, r1
    2366:	71 1c       	adc	r7, r1
    2368:	81 1c       	adc	r8, r1
    236a:	91 1c       	adc	r9, r1
    236c:	c4 01       	movw	r24, r8
    236e:	b3 01       	movw	r22, r6
    2370:	a6 01       	movw	r20, r12
    2372:	95 01       	movw	r18, r10
    2374:	0e 94 a2 06 	call	0xd44	; 0xd44 <appControl>
    2378:	7b 01       	movw	r14, r22
    237a:	8c 01       	movw	r16, r24
    237c:	dc cf       	rjmp	.-72     	; 0x2336 <main+0x46>

0000237e <interpolateU>:
    237e:	4f 92       	push	r4
    2380:	5f 92       	push	r5
    2382:	6f 92       	push	r6
    2384:	7f 92       	push	r7
    2386:	8f 92       	push	r8
    2388:	9f 92       	push	r9
    238a:	af 92       	push	r10
    238c:	bf 92       	push	r11
    238e:	cf 92       	push	r12
    2390:	df 92       	push	r13
    2392:	ef 92       	push	r14
    2394:	ff 92       	push	r15
    2396:	0f 93       	push	r16
    2398:	1f 93       	push	r17
    239a:	2b 01       	movw	r4, r22
    239c:	5a 01       	movw	r10, r20
    239e:	39 01       	movw	r6, r18
    23a0:	78 01       	movw	r14, r16
    23a2:	e2 1a       	sub	r14, r18
    23a4:	f3 0a       	sbc	r15, r19
    23a6:	00 e0       	ldi	r16, 0x00	; 0
    23a8:	10 e0       	ldi	r17, 0x00	; 0
    23aa:	9c 01       	movw	r18, r24
    23ac:	26 1b       	sub	r18, r22
    23ae:	37 0b       	sbc	r19, r23
    23b0:	44 27       	eor	r20, r20
    23b2:	37 fd       	sbrc	r19, 7
    23b4:	40 95       	com	r20
    23b6:	54 2f       	mov	r21, r20
    23b8:	c8 01       	movw	r24, r16
    23ba:	b7 01       	movw	r22, r14
    23bc:	0e 94 b6 27 	call	0x4f6c	; 0x4f6c <__mulsi3>
    23c0:	a4 18       	sub	r10, r4
    23c2:	b5 08       	sbc	r11, r5
    23c4:	cc 24       	eor	r12, r12
    23c6:	b7 fc       	sbrc	r11, 7
    23c8:	c0 94       	com	r12
    23ca:	dc 2c       	mov	r13, r12
    23cc:	a6 01       	movw	r20, r12
    23ce:	95 01       	movw	r18, r10
    23d0:	0e 94 2a 28 	call	0x5054	; 0x5054 <__divmodsi4>
    23d4:	88 24       	eor	r8, r8
    23d6:	99 24       	eor	r9, r9
    23d8:	26 0d       	add	r18, r6
    23da:	37 1d       	adc	r19, r7
    23dc:	48 1d       	adc	r20, r8
    23de:	59 1d       	adc	r21, r9
    23e0:	c9 01       	movw	r24, r18
    23e2:	1f 91       	pop	r17
    23e4:	0f 91       	pop	r16
    23e6:	ff 90       	pop	r15
    23e8:	ef 90       	pop	r14
    23ea:	df 90       	pop	r13
    23ec:	cf 90       	pop	r12
    23ee:	bf 90       	pop	r11
    23f0:	af 90       	pop	r10
    23f2:	9f 90       	pop	r9
    23f4:	8f 90       	pop	r8
    23f6:	7f 90       	pop	r7
    23f8:	6f 90       	pop	r6
    23fa:	5f 90       	pop	r5
    23fc:	4f 90       	pop	r4
    23fe:	08 95       	ret

00002400 <pin_is_high>:
    2400:	9c 01       	movw	r18, r24
    2402:	00 97       	sbiw	r24, 0x00	; 0
    2404:	81 f0       	breq	.+32     	; 0x2426 <pin_is_high+0x26>
    2406:	fc 01       	movw	r30, r24
    2408:	85 91       	lpm	r24, Z+
    240a:	94 91       	lpm	r25, Z+
    240c:	04 96       	adiw	r24, 0x04	; 4
    240e:	fc 01       	movw	r30, r24
    2410:	a5 91       	lpm	r26, Z+
    2412:	b4 91       	lpm	r27, Z+
    2414:	2e 5f       	subi	r18, 0xFE	; 254
    2416:	3f 4f       	sbci	r19, 0xFF	; 255
    2418:	f9 01       	movw	r30, r18
    241a:	94 91       	lpm	r25, Z+
    241c:	8c 91       	ld	r24, X
    241e:	89 23       	and	r24, r25
    2420:	11 f0       	breq	.+4      	; 0x2426 <pin_is_high+0x26>
    2422:	8f ef       	ldi	r24, 0xFF	; 255
    2424:	08 95       	ret
    2426:	80 e0       	ldi	r24, 0x00	; 0
    2428:	08 95       	ret

0000242a <pin_make_input>:
    242a:	cf 93       	push	r28
    242c:	df 93       	push	r29
    242e:	9c 01       	movw	r18, r24
    2430:	00 97       	sbiw	r24, 0x00	; 0
    2432:	f9 f0       	breq	.+62     	; 0x2472 <pin_make_input+0x48>
    2434:	fc 01       	movw	r30, r24
    2436:	45 91       	lpm	r20, Z+
    2438:	54 91       	lpm	r21, Z+
    243a:	ca 01       	movw	r24, r20
    243c:	02 96       	adiw	r24, 0x02	; 2
    243e:	fc 01       	movw	r30, r24
    2440:	a5 91       	lpm	r26, Z+
    2442:	b4 91       	lpm	r27, Z+
    2444:	fa 01       	movw	r30, r20
    2446:	c5 91       	lpm	r28, Z+
    2448:	d4 91       	lpm	r29, Z+
    244a:	2e 5f       	subi	r18, 0xFE	; 254
    244c:	3f 4f       	sbci	r19, 0xFF	; 255
    244e:	f9 01       	movw	r30, r18
    2450:	94 91       	lpm	r25, Z+
    2452:	3f b7       	in	r19, 0x3f	; 63
    2454:	f8 94       	cli
    2456:	8c 91       	ld	r24, X
    2458:	29 2f       	mov	r18, r25
    245a:	20 95       	com	r18
    245c:	82 23       	and	r24, r18
    245e:	8c 93       	st	X, r24
    2460:	66 23       	and	r22, r22
    2462:	19 f0       	breq	.+6      	; 0x246a <pin_make_input+0x40>
    2464:	88 81       	ld	r24, Y
    2466:	89 2b       	or	r24, r25
    2468:	02 c0       	rjmp	.+4      	; 0x246e <pin_make_input+0x44>
    246a:	88 81       	ld	r24, Y
    246c:	82 23       	and	r24, r18
    246e:	88 83       	st	Y, r24
    2470:	3f bf       	out	0x3f, r19	; 63
    2472:	df 91       	pop	r29
    2474:	cf 91       	pop	r28
    2476:	08 95       	ret

00002478 <pin_make_output>:
    2478:	cf 93       	push	r28
    247a:	df 93       	push	r29
    247c:	9c 01       	movw	r18, r24
    247e:	00 97       	sbiw	r24, 0x00	; 0
    2480:	f9 f0       	breq	.+62     	; 0x24c0 <pin_make_output+0x48>
    2482:	fc 01       	movw	r30, r24
    2484:	45 91       	lpm	r20, Z+
    2486:	54 91       	lpm	r21, Z+
    2488:	ca 01       	movw	r24, r20
    248a:	02 96       	adiw	r24, 0x02	; 2
    248c:	fc 01       	movw	r30, r24
    248e:	c5 91       	lpm	r28, Z+
    2490:	d4 91       	lpm	r29, Z+
    2492:	fa 01       	movw	r30, r20
    2494:	a5 91       	lpm	r26, Z+
    2496:	b4 91       	lpm	r27, Z+
    2498:	2e 5f       	subi	r18, 0xFE	; 254
    249a:	3f 4f       	sbci	r19, 0xFF	; 255
    249c:	f9 01       	movw	r30, r18
    249e:	24 91       	lpm	r18, Z+
    24a0:	3f b7       	in	r19, 0x3f	; 63
    24a2:	f8 94       	cli
    24a4:	66 23       	and	r22, r22
    24a6:	19 f0       	breq	.+6      	; 0x24ae <pin_make_output+0x36>
    24a8:	8c 91       	ld	r24, X
    24aa:	82 2b       	or	r24, r18
    24ac:	04 c0       	rjmp	.+8      	; 0x24b6 <pin_make_output+0x3e>
    24ae:	8c 91       	ld	r24, X
    24b0:	92 2f       	mov	r25, r18
    24b2:	90 95       	com	r25
    24b4:	89 23       	and	r24, r25
    24b6:	8c 93       	st	X, r24
    24b8:	88 81       	ld	r24, Y
    24ba:	82 2b       	or	r24, r18
    24bc:	88 83       	st	Y, r24
    24be:	3f bf       	out	0x3f, r19	; 63
    24c0:	df 91       	pop	r29
    24c2:	cf 91       	pop	r28
    24c4:	08 95       	ret

000024c6 <pin_is_output>:
    24c6:	9c 01       	movw	r18, r24
    24c8:	00 97       	sbiw	r24, 0x00	; 0
    24ca:	81 f0       	breq	.+32     	; 0x24ec <pin_is_output+0x26>
    24cc:	fc 01       	movw	r30, r24
    24ce:	85 91       	lpm	r24, Z+
    24d0:	94 91       	lpm	r25, Z+
    24d2:	02 96       	adiw	r24, 0x02	; 2
    24d4:	fc 01       	movw	r30, r24
    24d6:	a5 91       	lpm	r26, Z+
    24d8:	b4 91       	lpm	r27, Z+
    24da:	2e 5f       	subi	r18, 0xFE	; 254
    24dc:	3f 4f       	sbci	r19, 0xFF	; 255
    24de:	f9 01       	movw	r30, r18
    24e0:	94 91       	lpm	r25, Z+
    24e2:	8c 91       	ld	r24, X
    24e4:	89 23       	and	r24, r25
    24e6:	11 f0       	breq	.+4      	; 0x24ec <pin_is_output+0x26>
    24e8:	8f ef       	ldi	r24, 0xFF	; 255
    24ea:	08 95       	ret
    24ec:	80 e0       	ldi	r24, 0x00	; 0
    24ee:	08 95       	ret

000024f0 <pin_toggle>:
    24f0:	cf 93       	push	r28
    24f2:	df 93       	push	r29
    24f4:	9c 01       	movw	r18, r24
    24f6:	00 97       	sbiw	r24, 0x00	; 0
    24f8:	e1 f0       	breq	.+56     	; 0x2532 <pin_toggle+0x42>
    24fa:	fc 01       	movw	r30, r24
    24fc:	85 91       	lpm	r24, Z+
    24fe:	94 91       	lpm	r25, Z+
    2500:	fc 01       	movw	r30, r24
    2502:	a5 91       	lpm	r26, Z+
    2504:	b4 91       	lpm	r27, Z+
    2506:	02 96       	adiw	r24, 0x02	; 2
    2508:	fc 01       	movw	r30, r24
    250a:	c5 91       	lpm	r28, Z+
    250c:	d4 91       	lpm	r29, Z+
    250e:	2e 5f       	subi	r18, 0xFE	; 254
    2510:	3f 4f       	sbci	r19, 0xFF	; 255
    2512:	f9 01       	movw	r30, r18
    2514:	24 91       	lpm	r18, Z+
    2516:	88 81       	ld	r24, Y
    2518:	82 23       	and	r24, r18
    251a:	41 f0       	breq	.+16     	; 0x252c <pin_toggle+0x3c>
    251c:	9f b7       	in	r25, 0x3f	; 63
    251e:	f8 94       	cli
    2520:	8c 91       	ld	r24, X
    2522:	82 27       	eor	r24, r18
    2524:	8c 93       	st	X, r24
    2526:	9f bf       	out	0x3f, r25	; 63
    2528:	00 00       	nop
    252a:	03 c0       	rjmp	.+6      	; 0x2532 <pin_toggle+0x42>
    252c:	87 ef       	ldi	r24, 0xF7	; 247
    252e:	0e 94 69 1b 	call	0x36d2	; 0x36d2 <setError>
    2532:	df 91       	pop	r29
    2534:	cf 91       	pop	r28
    2536:	08 95       	ret

00002538 <pin_low>:
    2538:	cf 93       	push	r28
    253a:	df 93       	push	r29
    253c:	9c 01       	movw	r18, r24
    253e:	00 97       	sbiw	r24, 0x00	; 0
    2540:	e9 f0       	breq	.+58     	; 0x257c <pin_low+0x44>
    2542:	fc 01       	movw	r30, r24
    2544:	85 91       	lpm	r24, Z+
    2546:	94 91       	lpm	r25, Z+
    2548:	fc 01       	movw	r30, r24
    254a:	a5 91       	lpm	r26, Z+
    254c:	b4 91       	lpm	r27, Z+
    254e:	02 96       	adiw	r24, 0x02	; 2
    2550:	fc 01       	movw	r30, r24
    2552:	c5 91       	lpm	r28, Z+
    2554:	d4 91       	lpm	r29, Z+
    2556:	2e 5f       	subi	r18, 0xFE	; 254
    2558:	3f 4f       	sbci	r19, 0xFF	; 255
    255a:	f9 01       	movw	r30, r18
    255c:	24 91       	lpm	r18, Z+
    255e:	88 81       	ld	r24, Y
    2560:	82 23       	and	r24, r18
    2562:	49 f0       	breq	.+18     	; 0x2576 <pin_low+0x3e>
    2564:	9f b7       	in	r25, 0x3f	; 63
    2566:	f8 94       	cli
    2568:	8c 91       	ld	r24, X
    256a:	20 95       	com	r18
    256c:	82 23       	and	r24, r18
    256e:	8c 93       	st	X, r24
    2570:	9f bf       	out	0x3f, r25	; 63
    2572:	00 00       	nop
    2574:	03 c0       	rjmp	.+6      	; 0x257c <pin_low+0x44>
    2576:	87 ef       	ldi	r24, 0xF7	; 247
    2578:	0e 94 69 1b 	call	0x36d2	; 0x36d2 <setError>
    257c:	df 91       	pop	r29
    257e:	cf 91       	pop	r28
    2580:	08 95       	ret

00002582 <pin_high>:
    2582:	cf 93       	push	r28
    2584:	df 93       	push	r29
    2586:	9c 01       	movw	r18, r24
    2588:	00 97       	sbiw	r24, 0x00	; 0
    258a:	e1 f0       	breq	.+56     	; 0x25c4 <pin_high+0x42>
    258c:	fc 01       	movw	r30, r24
    258e:	85 91       	lpm	r24, Z+
    2590:	94 91       	lpm	r25, Z+
    2592:	fc 01       	movw	r30, r24
    2594:	a5 91       	lpm	r26, Z+
    2596:	b4 91       	lpm	r27, Z+
    2598:	02 96       	adiw	r24, 0x02	; 2
    259a:	fc 01       	movw	r30, r24
    259c:	c5 91       	lpm	r28, Z+
    259e:	d4 91       	lpm	r29, Z+
    25a0:	2e 5f       	subi	r18, 0xFE	; 254
    25a2:	3f 4f       	sbci	r19, 0xFF	; 255
    25a4:	f9 01       	movw	r30, r18
    25a6:	24 91       	lpm	r18, Z+
    25a8:	88 81       	ld	r24, Y
    25aa:	82 23       	and	r24, r18
    25ac:	41 f0       	breq	.+16     	; 0x25be <pin_high+0x3c>
    25ae:	9f b7       	in	r25, 0x3f	; 63
    25b0:	f8 94       	cli
    25b2:	8c 91       	ld	r24, X
    25b4:	82 2b       	or	r24, r18
    25b6:	8c 93       	st	X, r24
    25b8:	9f bf       	out	0x3f, r25	; 63
    25ba:	00 00       	nop
    25bc:	03 c0       	rjmp	.+6      	; 0x25c4 <pin_high+0x42>
    25be:	87 ef       	ldi	r24, 0xF7	; 247
    25c0:	0e 94 69 1b 	call	0x36d2	; 0x36d2 <setError>
    25c4:	df 91       	pop	r29
    25c6:	cf 91       	pop	r28
    25c8:	08 95       	ret

000025ca <pin_set>:
    25ca:	66 23       	and	r22, r22
    25cc:	19 f0       	breq	.+6      	; 0x25d4 <pin_set+0xa>
    25ce:	0e 94 c1 12 	call	0x2582	; 0x2582 <pin_high>
    25d2:	08 95       	ret
    25d4:	0e 94 9c 12 	call	0x2538	; 0x2538 <pin_low>
    25d8:	08 95       	ret

000025da <LED_set>:
    25da:	1f 93       	push	r17
    25dc:	cf 93       	push	r28
    25de:	df 93       	push	r29
    25e0:	ec 01       	movw	r28, r24
    25e2:	16 2f       	mov	r17, r22
    25e4:	88 81       	ld	r24, Y
    25e6:	99 81       	ldd	r25, Y+1	; 0x01
    25e8:	00 97       	sbiw	r24, 0x00	; 0
    25ea:	a9 f0       	breq	.+42     	; 0x2616 <LED_set+0x3c>
    25ec:	3a 81       	ldd	r19, Y+2	; 0x02
    25ee:	30 fd       	sbrc	r19, 0
    25f0:	05 c0       	rjmp	.+10     	; 0x25fc <LED_set+0x22>
    25f2:	20 e0       	ldi	r18, 0x00	; 0
    25f4:	66 23       	and	r22, r22
    25f6:	09 f4       	brne	.+2      	; 0x25fa <LED_set+0x20>
    25f8:	21 e0       	ldi	r18, 0x01	; 1
    25fa:	12 2f       	mov	r17, r18
    25fc:	31 fd       	sbrc	r19, 1
    25fe:	06 c0       	rjmp	.+12     	; 0x260c <LED_set+0x32>
    2600:	61 2f       	mov	r22, r17
    2602:	0e 94 3c 12 	call	0x2478	; 0x2478 <pin_make_output>
    2606:	8a 81       	ldd	r24, Y+2	; 0x02
    2608:	82 60       	ori	r24, 0x02	; 2
    260a:	8a 83       	std	Y+2, r24	; 0x02
    260c:	88 81       	ld	r24, Y
    260e:	99 81       	ldd	r25, Y+1	; 0x01
    2610:	61 2f       	mov	r22, r17
    2612:	0e 94 e5 12 	call	0x25ca	; 0x25ca <pin_set>
    2616:	df 91       	pop	r29
    2618:	cf 91       	pop	r28
    261a:	1f 91       	pop	r17
    261c:	08 95       	ret

0000261e <pwmOff>:
    261e:	cf 93       	push	r28
    2620:	df 93       	push	r29
    2622:	0e 94 ab 21 	call	0x4356	; 0x4356 <compareFromIOPin>
    2626:	ec 01       	movw	r28, r24
    2628:	00 97       	sbiw	r24, 0x00	; 0
    262a:	31 f0       	breq	.+12     	; 0x2638 <pwmOff+0x1a>
    262c:	0e 94 d5 1b 	call	0x37aa	; 0x37aa <compareDetach>
    2630:	ce 01       	movw	r24, r28
    2632:	60 e0       	ldi	r22, 0x00	; 0
    2634:	0e 94 80 19 	call	0x3300	; 0x3300 <compareSetOutputMode>
    2638:	df 91       	pop	r29
    263a:	cf 91       	pop	r28
    263c:	08 95       	ret

0000263e <pwmGetDutyCycle>:
    263e:	ef 92       	push	r14
    2640:	ff 92       	push	r15
    2642:	0f 93       	push	r16
    2644:	1f 93       	push	r17
    2646:	cf 93       	push	r28
    2648:	df 93       	push	r29
    264a:	0e 94 ab 21 	call	0x4356	; 0x4356 <compareFromIOPin>
    264e:	ec 01       	movw	r28, r24
    2650:	00 97       	sbiw	r24, 0x00	; 0
    2652:	11 f4       	brne	.+4      	; 0x2658 <pwmGetDutyCycle+0x1a>
    2654:	20 e0       	ldi	r18, 0x00	; 0
    2656:	20 c0       	rjmp	.+64     	; 0x2698 <pwmGetDutyCycle+0x5a>
    2658:	22 96       	adiw	r28, 0x02	; 2
    265a:	fe 01       	movw	r30, r28
    265c:	84 91       	lpm	r24, Z+
    265e:	22 97       	sbiw	r28, 0x02	; 2
    2660:	2c e2       	ldi	r18, 0x2C	; 44
    2662:	82 9f       	mul	r24, r18
    2664:	c0 01       	movw	r24, r0
    2666:	11 24       	eor	r1, r1
    2668:	82 5f       	subi	r24, 0xF2	; 242
    266a:	9e 4f       	sbci	r25, 0xFE	; 254
    266c:	0e 94 5b 1c 	call	0x38b6	; 0x38b6 <timerGetTOP>
    2670:	7c 01       	movw	r14, r24
    2672:	ce 01       	movw	r24, r28
    2674:	0e 94 2e 1c 	call	0x385c	; 0x385c <compareGetThreshold>
    2678:	a0 e0       	ldi	r26, 0x00	; 0
    267a:	b0 e0       	ldi	r27, 0x00	; 0
    267c:	bc 01       	movw	r22, r24
    267e:	cd 01       	movw	r24, r26
    2680:	24 e6       	ldi	r18, 0x64	; 100
    2682:	30 e0       	ldi	r19, 0x00	; 0
    2684:	40 e0       	ldi	r20, 0x00	; 0
    2686:	50 e0       	ldi	r21, 0x00	; 0
    2688:	0e 94 b6 27 	call	0x4f6c	; 0x4f6c <__mulsi3>
    268c:	00 e0       	ldi	r16, 0x00	; 0
    268e:	10 e0       	ldi	r17, 0x00	; 0
    2690:	a8 01       	movw	r20, r16
    2692:	97 01       	movw	r18, r14
    2694:	0e 94 08 28 	call	0x5010	; 0x5010 <__udivmodsi4>
    2698:	82 2f       	mov	r24, r18
    269a:	df 91       	pop	r29
    269c:	cf 91       	pop	r28
    269e:	1f 91       	pop	r17
    26a0:	0f 91       	pop	r16
    26a2:	ff 90       	pop	r15
    26a4:	ef 90       	pop	r14
    26a6:	08 95       	ret

000026a8 <pwmSetDutyCycle>:
    26a8:	ff 92       	push	r15
    26aa:	0f 93       	push	r16
    26ac:	1f 93       	push	r17
    26ae:	cf 93       	push	r28
    26b0:	df 93       	push	r29
    26b2:	f6 2e       	mov	r15, r22
    26b4:	0e 94 ab 21 	call	0x4356	; 0x4356 <compareFromIOPin>
    26b8:	ec 01       	movw	r28, r24
    26ba:	00 97       	sbiw	r24, 0x00	; 0
    26bc:	f9 f0       	breq	.+62     	; 0x26fc <pwmSetDutyCycle+0x54>
    26be:	22 96       	adiw	r28, 0x02	; 2
    26c0:	fe 01       	movw	r30, r28
    26c2:	84 91       	lpm	r24, Z+
    26c4:	22 97       	sbiw	r28, 0x02	; 2
    26c6:	2c e2       	ldi	r18, 0x2C	; 44
    26c8:	82 9f       	mul	r24, r18
    26ca:	c0 01       	movw	r24, r0
    26cc:	11 24       	eor	r1, r1
    26ce:	82 5f       	subi	r24, 0xF2	; 242
    26d0:	9e 4f       	sbci	r25, 0xFE	; 254
    26d2:	0e 94 5b 1c 	call	0x38b6	; 0x38b6 <timerGetTOP>
    26d6:	8c 01       	movw	r16, r24
    26d8:	6f 2d       	mov	r22, r15
    26da:	65 36       	cpi	r22, 0x65	; 101
    26dc:	08 f0       	brcs	.+2      	; 0x26e0 <pwmSetDutyCycle+0x38>
    26de:	64 e6       	ldi	r22, 0x64	; 100
    26e0:	86 2f       	mov	r24, r22
    26e2:	90 e0       	ldi	r25, 0x00	; 0
    26e4:	60 e0       	ldi	r22, 0x00	; 0
    26e6:	70 e0       	ldi	r23, 0x00	; 0
    26e8:	44 e6       	ldi	r20, 0x64	; 100
    26ea:	50 e0       	ldi	r21, 0x00	; 0
    26ec:	20 e0       	ldi	r18, 0x00	; 0
    26ee:	30 e0       	ldi	r19, 0x00	; 0
    26f0:	0e 94 bf 11 	call	0x237e	; 0x237e <interpolateU>
    26f4:	bc 01       	movw	r22, r24
    26f6:	ce 01       	movw	r24, r28
    26f8:	0e 94 f9 1b 	call	0x37f2	; 0x37f2 <compareSetThreshold>
    26fc:	df 91       	pop	r29
    26fe:	cf 91       	pop	r28
    2700:	1f 91       	pop	r17
    2702:	0f 91       	pop	r16
    2704:	ff 90       	pop	r15
    2706:	08 95       	ret

00002708 <pwmInitDeciHertz>:
    2708:	3f 92       	push	r3
    270a:	4f 92       	push	r4
    270c:	5f 92       	push	r5
    270e:	6f 92       	push	r6
    2710:	7f 92       	push	r7
    2712:	8f 92       	push	r8
    2714:	9f 92       	push	r9
    2716:	af 92       	push	r10
    2718:	bf 92       	push	r11
    271a:	cf 92       	push	r12
    271c:	df 92       	push	r13
    271e:	ef 92       	push	r14
    2720:	ff 92       	push	r15
    2722:	0f 93       	push	r16
    2724:	1f 93       	push	r17
    2726:	df 93       	push	r29
    2728:	cf 93       	push	r28
    272a:	00 d0       	rcall	.+0      	; 0x272c <pwmInitDeciHertz+0x24>
    272c:	00 d0       	rcall	.+0      	; 0x272e <pwmInitDeciHertz+0x26>
    272e:	0f 92       	push	r0
    2730:	cd b7       	in	r28, 0x3d	; 61
    2732:	de b7       	in	r29, 0x3e	; 62
    2734:	3c 01       	movw	r6, r24
    2736:	6a 01       	movw	r12, r20
    2738:	7b 01       	movw	r14, r22
    273a:	32 2e       	mov	r3, r18
    273c:	28 01       	movw	r4, r16
    273e:	0e 94 ab 21 	call	0x4356	; 0x4356 <compareFromIOPin>
    2742:	4c 01       	movw	r8, r24
    2744:	00 97       	sbiw	r24, 0x00	; 0
    2746:	11 f4       	brne	.+4      	; 0x274c <pwmInitDeciHertz+0x44>
    2748:	84 ef       	ldi	r24, 0xF4	; 244
    274a:	3b c0       	rjmp	.+118    	; 0x27c2 <pwmInitDeciHertz+0xba>
    274c:	0e 94 7d 21 	call	0x42fa	; 0x42fa <compareIsInUse>
    2750:	88 23       	and	r24, r24
    2752:	11 f0       	breq	.+4      	; 0x2758 <pwmInitDeciHertz+0x50>
    2754:	83 ef       	ldi	r24, 0xF3	; 243
    2756:	35 c0       	rjmp	.+106    	; 0x27c2 <pwmInitDeciHertz+0xba>
    2758:	22 e0       	ldi	r18, 0x02	; 2
    275a:	30 e0       	ldi	r19, 0x00	; 0
    275c:	82 0e       	add	r8, r18
    275e:	93 1e       	adc	r9, r19
    2760:	f4 01       	movw	r30, r8
    2762:	94 91       	lpm	r25, Z+
    2764:	2e ef       	ldi	r18, 0xFE	; 254
    2766:	3f ef       	ldi	r19, 0xFF	; 255
    2768:	82 0e       	add	r8, r18
    276a:	93 1e       	adc	r9, r19
    276c:	8c e2       	ldi	r24, 0x2C	; 44
    276e:	98 9f       	mul	r25, r24
    2770:	50 01       	movw	r10, r0
    2772:	11 24       	eor	r1, r1
    2774:	8e e0       	ldi	r24, 0x0E	; 14
    2776:	91 e0       	ldi	r25, 0x01	; 1
    2778:	a8 0e       	add	r10, r24
    277a:	b9 1e       	adc	r11, r25
    277c:	c5 01       	movw	r24, r10
    277e:	b7 01       	movw	r22, r14
    2780:	a6 01       	movw	r20, r12
    2782:	24 e6       	ldi	r18, 0x64	; 100
    2784:	30 e0       	ldi	r19, 0x00	; 0
    2786:	8e 01       	movw	r16, r28
    2788:	0f 5f       	subi	r16, 0xFF	; 255
    278a:	1f 4f       	sbci	r17, 0xFF	; 255
    278c:	f2 e0       	ldi	r31, 0x02	; 2
    278e:	ef 2e       	mov	r14, r31
    2790:	f1 2c       	mov	r15, r1
    2792:	ec 0e       	add	r14, r28
    2794:	fd 1e       	adc	r15, r29
    2796:	e4 e0       	ldi	r30, 0x04	; 4
    2798:	ce 2e       	mov	r12, r30
    279a:	d1 2c       	mov	r13, r1
    279c:	cc 0e       	add	r12, r28
    279e:	dd 1e       	adc	r13, r29
    27a0:	0e 94 ed 22 	call	0x45da	; 0x45da <timerCalcPwm>
    27a4:	f5 01       	movw	r30, r10
    27a6:	34 96       	adiw	r30, 0x04	; 4
    27a8:	88 23       	and	r24, r24
    27aa:	79 f4       	brne	.+30     	; 0x27ca <pwmInitDeciHertz+0xc2>
    27ac:	a5 91       	lpm	r26, Z+
    27ae:	b4 91       	lpm	r27, Z+
    27b0:	8c 91       	ld	r24, X
    27b2:	90 e0       	ldi	r25, 0x00	; 0
    27b4:	87 70       	andi	r24, 0x07	; 7
    27b6:	90 70       	andi	r25, 0x00	; 0
    27b8:	89 2b       	or	r24, r25
    27ba:	11 f4       	brne	.+4      	; 0x27c0 <pwmInitDeciHertz+0xb8>
    27bc:	83 ee       	ldi	r24, 0xE3	; 227
    27be:	01 c0       	rjmp	.+2      	; 0x27c2 <pwmInitDeciHertz+0xba>
    27c0:	82 ef       	ldi	r24, 0xF2	; 242
    27c2:	0e 94 69 1b 	call	0x36d2	; 0x36d2 <setError>
    27c6:	80 e0       	ldi	r24, 0x00	; 0
    27c8:	41 c0       	rjmp	.+130    	; 0x284c <pwmInitDeciHertz+0x144>
    27ca:	a5 91       	lpm	r26, Z+
    27cc:	b4 91       	lpm	r27, Z+
    27ce:	8c 91       	ld	r24, X
    27d0:	90 e0       	ldi	r25, 0x00	; 0
    27d2:	87 70       	andi	r24, 0x07	; 7
    27d4:	90 70       	andi	r25, 0x00	; 0
    27d6:	89 2b       	or	r24, r25
    27d8:	09 f4       	brne	.+2      	; 0x27dc <pwmInitDeciHertz+0xd4>
    27da:	4f c0       	rjmp	.+158    	; 0x287a <pwmInitDeciHertz+0x172>
    27dc:	f5 01       	movw	r30, r10
    27de:	a5 91       	lpm	r26, Z+
    27e0:	b4 91       	lpm	r27, Z+
    27e2:	8d 91       	ld	r24, X+
    27e4:	9c 91       	ld	r25, X
    27e6:	9d 83       	std	Y+5, r25	; 0x05
    27e8:	8c 83       	std	Y+4, r24	; 0x04
    27ea:	0a c0       	rjmp	.+20     	; 0x2800 <pwmInitDeciHertz+0xf8>
    27ec:	c5 01       	movw	r24, r10
    27ee:	4f 96       	adiw	r24, 0x1f	; 31
    27f0:	fc 01       	movw	r30, r24
    27f2:	a5 91       	lpm	r26, Z+
    27f4:	b4 91       	lpm	r27, Z+
    27f6:	8a 81       	ldd	r24, Y+2	; 0x02
    27f8:	9b 81       	ldd	r25, Y+3	; 0x03
    27fa:	11 96       	adiw	r26, 0x01	; 1
    27fc:	9c 93       	st	X, r25
    27fe:	8e 93       	st	-X, r24
    2800:	c4 01       	movw	r24, r8
    2802:	6d e0       	ldi	r22, 0x0D	; 13
    2804:	79 e1       	ldi	r23, 0x19	; 25
    2806:	40 e0       	ldi	r20, 0x00	; 0
    2808:	50 e0       	ldi	r21, 0x00	; 0
    280a:	20 e0       	ldi	r18, 0x00	; 0
    280c:	30 e0       	ldi	r19, 0x00	; 0
    280e:	0e 94 d6 1e 	call	0x3dac	; 0x3dac <compareAttach>
    2812:	c3 01       	movw	r24, r6
    2814:	60 e0       	ldi	r22, 0x00	; 0
    2816:	0e 94 3c 12 	call	0x2478	; 0x2478 <pin_make_output>
    281a:	c4 01       	movw	r24, r8
    281c:	62 e0       	ldi	r22, 0x02	; 2
    281e:	0e 94 80 19 	call	0x3300	; 0x3300 <compareSetOutputMode>
    2822:	6c 81       	ldd	r22, Y+4	; 0x04
    2824:	7d 81       	ldd	r23, Y+5	; 0x05
    2826:	c5 01       	movw	r24, r10
    2828:	0e 94 82 1d 	call	0x3b04	; 0x3b04 <timerSetPrescaler>
    282c:	c3 01       	movw	r24, r6
    282e:	63 2d       	mov	r22, r3
    2830:	0e 94 54 13 	call	0x26a8	; 0x26a8 <pwmSetDutyCycle>
    2834:	41 14       	cp	r4, r1
    2836:	51 04       	cpc	r5, r1
    2838:	41 f0       	breq	.+16     	; 0x284a <pwmInitDeciHertz+0x142>
    283a:	c5 01       	movw	r24, r10
    283c:	0e 94 b5 22 	call	0x456a	; 0x456a <TimerGetPwmDeciHertz>
    2840:	f2 01       	movw	r30, r4
    2842:	60 83       	st	Z, r22
    2844:	71 83       	std	Z+1, r23	; 0x01
    2846:	82 83       	std	Z+2, r24	; 0x02
    2848:	93 83       	std	Z+3, r25	; 0x03
    284a:	8f ef       	ldi	r24, 0xFF	; 255
    284c:	0f 90       	pop	r0
    284e:	0f 90       	pop	r0
    2850:	0f 90       	pop	r0
    2852:	0f 90       	pop	r0
    2854:	0f 90       	pop	r0
    2856:	cf 91       	pop	r28
    2858:	df 91       	pop	r29
    285a:	1f 91       	pop	r17
    285c:	0f 91       	pop	r16
    285e:	ff 90       	pop	r15
    2860:	ef 90       	pop	r14
    2862:	df 90       	pop	r13
    2864:	cf 90       	pop	r12
    2866:	bf 90       	pop	r11
    2868:	af 90       	pop	r10
    286a:	9f 90       	pop	r9
    286c:	8f 90       	pop	r8
    286e:	7f 90       	pop	r7
    2870:	6f 90       	pop	r6
    2872:	5f 90       	pop	r5
    2874:	4f 90       	pop	r4
    2876:	3f 90       	pop	r3
    2878:	08 95       	ret
    287a:	c5 01       	movw	r24, r10
    287c:	69 81       	ldd	r22, Y+1	; 0x01
    287e:	0e 94 11 1e 	call	0x3c22	; 0x3c22 <timerSetMode>
    2882:	81 e0       	ldi	r24, 0x01	; 1
    2884:	90 e0       	ldi	r25, 0x00	; 0
    2886:	09 80       	ldd	r0, Y+1	; 0x01
    2888:	02 c0       	rjmp	.+4      	; 0x288e <pwmInitDeciHertz+0x186>
    288a:	88 0f       	add	r24, r24
    288c:	99 1f       	adc	r25, r25
    288e:	0a 94       	dec	r0
    2890:	e2 f7       	brpl	.-8      	; 0x288a <pwmInitDeciHertz+0x182>
    2892:	80 70       	andi	r24, 0x00	; 0
    2894:	95 75       	andi	r25, 0x55	; 85
    2896:	89 2b       	or	r24, r25
    2898:	09 f0       	breq	.+2      	; 0x289c <pwmInitDeciHertz+0x194>
    289a:	a8 cf       	rjmp	.-176    	; 0x27ec <pwmInitDeciHertz+0xe4>
    289c:	b1 cf       	rjmp	.-158    	; 0x2800 <pwmInitDeciHertz+0xf8>

0000289e <pwmInitHertz>:
    289e:	9f 92       	push	r9
    28a0:	af 92       	push	r10
    28a2:	bf 92       	push	r11
    28a4:	cf 92       	push	r12
    28a6:	df 92       	push	r13
    28a8:	ef 92       	push	r14
    28aa:	ff 92       	push	r15
    28ac:	0f 93       	push	r16
    28ae:	1f 93       	push	r17
    28b0:	cf 93       	push	r28
    28b2:	df 93       	push	r29
    28b4:	5c 01       	movw	r10, r24
    28b6:	6a 01       	movw	r12, r20
    28b8:	7b 01       	movw	r14, r22
    28ba:	92 2e       	mov	r9, r18
    28bc:	e8 01       	movw	r28, r16
    28be:	cb 01       	movw	r24, r22
    28c0:	ba 01       	movw	r22, r20
    28c2:	2a e0       	ldi	r18, 0x0A	; 10
    28c4:	30 e0       	ldi	r19, 0x00	; 0
    28c6:	40 e0       	ldi	r20, 0x00	; 0
    28c8:	50 e0       	ldi	r21, 0x00	; 0
    28ca:	0e 94 b6 27 	call	0x4f6c	; 0x4f6c <__mulsi3>
    28ce:	ab 01       	movw	r20, r22
    28d0:	bc 01       	movw	r22, r24
    28d2:	4c 15       	cp	r20, r12
    28d4:	5d 05       	cpc	r21, r13
    28d6:	6e 05       	cpc	r22, r14
    28d8:	7f 05       	cpc	r23, r15
    28da:	20 f4       	brcc	.+8      	; 0x28e4 <pwmInitHertz+0x46>
    28dc:	4f ef       	ldi	r20, 0xFF	; 255
    28de:	5f ef       	ldi	r21, 0xFF	; 255
    28e0:	6f ef       	ldi	r22, 0xFF	; 255
    28e2:	7f ef       	ldi	r23, 0xFF	; 255
    28e4:	c5 01       	movw	r24, r10
    28e6:	29 2d       	mov	r18, r9
    28e8:	8e 01       	movw	r16, r28
    28ea:	0e 94 84 13 	call	0x2708	; 0x2708 <pwmInitDeciHertz>
    28ee:	18 2f       	mov	r17, r24
    28f0:	8f 3f       	cpi	r24, 0xFF	; 255
    28f2:	81 f4       	brne	.+32     	; 0x2914 <pwmInitHertz+0x76>
    28f4:	20 97       	sbiw	r28, 0x00	; 0
    28f6:	71 f0       	breq	.+28     	; 0x2914 <pwmInitHertz+0x76>
    28f8:	68 81       	ld	r22, Y
    28fa:	79 81       	ldd	r23, Y+1	; 0x01
    28fc:	8a 81       	ldd	r24, Y+2	; 0x02
    28fe:	9b 81       	ldd	r25, Y+3	; 0x03
    2900:	2a e0       	ldi	r18, 0x0A	; 10
    2902:	30 e0       	ldi	r19, 0x00	; 0
    2904:	40 e0       	ldi	r20, 0x00	; 0
    2906:	50 e0       	ldi	r21, 0x00	; 0
    2908:	0e 94 08 28 	call	0x5010	; 0x5010 <__udivmodsi4>
    290c:	28 83       	st	Y, r18
    290e:	39 83       	std	Y+1, r19	; 0x01
    2910:	4a 83       	std	Y+2, r20	; 0x02
    2912:	5b 83       	std	Y+3, r21	; 0x03
    2914:	81 2f       	mov	r24, r17
    2916:	df 91       	pop	r29
    2918:	cf 91       	pop	r28
    291a:	1f 91       	pop	r17
    291c:	0f 91       	pop	r16
    291e:	ff 90       	pop	r15
    2920:	ef 90       	pop	r14
    2922:	df 90       	pop	r13
    2924:	cf 90       	pop	r12
    2926:	bf 90       	pop	r11
    2928:	af 90       	pop	r10
    292a:	9f 90       	pop	r9
    292c:	08 95       	ret

0000292e <rprintfIgnore>:
    292e:	08 95       	ret

00002930 <rprintfInit>:
    2930:	20 91 e4 00 	lds	r18, 0x00E4
    2934:	30 91 e5 00 	lds	r19, 0x00E5
    2938:	90 93 e5 00 	sts	0x00E5, r25
    293c:	80 93 e4 00 	sts	0x00E4, r24
    2940:	c9 01       	movw	r24, r18
    2942:	08 95       	ret

00002944 <rprintfChar>:
    2944:	1f 93       	push	r17
    2946:	18 2f       	mov	r17, r24
    2948:	8a 30       	cpi	r24, 0x0A	; 10
    294a:	31 f4       	brne	.+12     	; 0x2958 <rprintfChar+0x14>
    294c:	e0 91 e4 00 	lds	r30, 0x00E4
    2950:	f0 91 e5 00 	lds	r31, 0x00E5
    2954:	8d e0       	ldi	r24, 0x0D	; 13
    2956:	09 95       	icall
    2958:	e0 91 e4 00 	lds	r30, 0x00E4
    295c:	f0 91 e5 00 	lds	r31, 0x00E5
    2960:	81 2f       	mov	r24, r17
    2962:	09 95       	icall
    2964:	1f 91       	pop	r17
    2966:	08 95       	ret

00002968 <rprintfCharN>:
    2968:	1f 93       	push	r17
    296a:	cf 93       	push	r28
    296c:	df 93       	push	r29
    296e:	18 2f       	mov	r17, r24
    2970:	eb 01       	movw	r28, r22
    2972:	04 c0       	rjmp	.+8      	; 0x297c <rprintfCharN+0x14>
    2974:	81 2f       	mov	r24, r17
    2976:	0e 94 a2 14 	call	0x2944	; 0x2944 <rprintfChar>
    297a:	21 97       	sbiw	r28, 0x01	; 1
    297c:	20 97       	sbiw	r28, 0x00	; 0
    297e:	d1 f7       	brne	.-12     	; 0x2974 <rprintfCharN+0xc>
    2980:	df 91       	pop	r29
    2982:	cf 91       	pop	r28
    2984:	1f 91       	pop	r17
    2986:	08 95       	ret

00002988 <rprintfStr>:
    2988:	cf 93       	push	r28
    298a:	df 93       	push	r29
    298c:	ec 01       	movw	r28, r24
    298e:	00 97       	sbiw	r24, 0x00	; 0
    2990:	21 f4       	brne	.+8      	; 0x299a <rprintfStr+0x12>
    2992:	06 c0       	rjmp	.+12     	; 0x29a0 <rprintfStr+0x18>
    2994:	21 96       	adiw	r28, 0x01	; 1
    2996:	0e 94 a2 14 	call	0x2944	; 0x2944 <rprintfChar>
    299a:	88 81       	ld	r24, Y
    299c:	88 23       	and	r24, r24
    299e:	d1 f7       	brne	.-12     	; 0x2994 <rprintfStr+0xc>
    29a0:	df 91       	pop	r29
    29a2:	cf 91       	pop	r28
    29a4:	08 95       	ret

000029a6 <rprintfProgStr>:
    29a6:	cf 93       	push	r28
    29a8:	df 93       	push	r29
    29aa:	ec 01       	movw	r28, r24
    29ac:	00 97       	sbiw	r24, 0x00	; 0
    29ae:	19 f4       	brne	.+6      	; 0x29b6 <rprintfProgStr+0x10>
    29b0:	07 c0       	rjmp	.+14     	; 0x29c0 <rprintfProgStr+0x1a>
    29b2:	0e 94 a2 14 	call	0x2944	; 0x2944 <rprintfChar>
    29b6:	fe 01       	movw	r30, r28
    29b8:	21 96       	adiw	r28, 0x01	; 1
    29ba:	84 91       	lpm	r24, Z+
    29bc:	88 23       	and	r24, r24
    29be:	c9 f7       	brne	.-14     	; 0x29b2 <rprintfProgStr+0xc>
    29c0:	df 91       	pop	r29
    29c2:	cf 91       	pop	r28
    29c4:	08 95       	ret

000029c6 <rprintfCRLF>:
    29c6:	8a e0       	ldi	r24, 0x0A	; 10
    29c8:	0e 94 a2 14 	call	0x2944	; 0x2944 <rprintfChar>
    29cc:	08 95       	ret

000029ce <rprintfu04>:
    29ce:	e8 2f       	mov	r30, r24
    29d0:	f0 e0       	ldi	r31, 0x00	; 0
    29d2:	ef 70       	andi	r30, 0x0F	; 15
    29d4:	f0 70       	andi	r31, 0x00	; 0
    29d6:	e3 59       	subi	r30, 0x93	; 147
    29d8:	fd 4f       	sbci	r31, 0xFD	; 253
    29da:	e4 91       	lpm	r30, Z+
    29dc:	8e 2f       	mov	r24, r30
    29de:	0e 94 a2 14 	call	0x2944	; 0x2944 <rprintfChar>
    29e2:	08 95       	ret

000029e4 <rprintfNum>:
    29e4:	2f 92       	push	r2
    29e6:	3f 92       	push	r3
    29e8:	4f 92       	push	r4
    29ea:	5f 92       	push	r5
    29ec:	6f 92       	push	r6
    29ee:	7f 92       	push	r7
    29f0:	8f 92       	push	r8
    29f2:	9f 92       	push	r9
    29f4:	af 92       	push	r10
    29f6:	bf 92       	push	r11
    29f8:	cf 92       	push	r12
    29fa:	df 92       	push	r13
    29fc:	ef 92       	push	r14
    29fe:	ff 92       	push	r15
    2a00:	0f 93       	push	r16
    2a02:	1f 93       	push	r17
    2a04:	df 93       	push	r29
    2a06:	cf 93       	push	r28
    2a08:	cd b7       	in	r28, 0x3d	; 61
    2a0a:	de b7       	in	r29, 0x3e	; 62
    2a0c:	a3 97       	sbiw	r28, 0x23	; 35
    2a0e:	0f b6       	in	r0, 0x3f	; 63
    2a10:	f8 94       	cli
    2a12:	de bf       	out	0x3e, r29	; 62
    2a14:	0f be       	out	0x3f, r0	; 63
    2a16:	cd bf       	out	0x3d, r28	; 61
    2a18:	26 2e       	mov	r2, r22
    2a1a:	4a a3       	std	Y+34, r20	; 0x22
    2a1c:	2b a3       	std	Y+35, r18	; 0x23
    2a1e:	37 01       	movw	r6, r14
    2a20:	48 01       	movw	r8, r16
    2a22:	44 23       	and	r20, r20
    2a24:	51 f0       	breq	.+20     	; 0x2a3a <rprintfNum+0x56>
    2a26:	17 ff       	sbrs	r17, 7
    2a28:	08 c0       	rjmp	.+16     	; 0x2a3a <rprintfNum+0x56>
    2a2a:	ee 24       	eor	r14, r14
    2a2c:	ff 24       	eor	r15, r15
    2a2e:	87 01       	movw	r16, r14
    2a30:	e6 18       	sub	r14, r6
    2a32:	f7 08       	sbc	r15, r7
    2a34:	08 09       	sbc	r16, r8
    2a36:	19 09       	sbc	r17, r9
    2a38:	02 c0       	rjmp	.+4      	; 0x2a3e <rprintfNum+0x5a>
    2a3a:	84 01       	movw	r16, r8
    2a3c:	73 01       	movw	r14, r6
    2a3e:	22 2d       	mov	r18, r2
    2a40:	21 50       	subi	r18, 0x01	; 1
    2a42:	90 e0       	ldi	r25, 0x00	; 0
    2a44:	3a a1       	ldd	r19, Y+34	; 0x22
    2a46:	31 11       	cpse	r19, r1
    2a48:	91 e0       	ldi	r25, 0x01	; 1
    2a4a:	29 1b       	sub	r18, r25
    2a4c:	29 a3       	std	Y+33, r18	; 0x21
    2a4e:	18 a2       	std	Y+32, r1	; 0x20
    2a50:	a8 2e       	mov	r10, r24
    2a52:	bb 24       	eor	r11, r11
    2a54:	cc 24       	eor	r12, r12
    2a56:	dd 24       	eor	r13, r13
    2a58:	c8 01       	movw	r24, r16
    2a5a:	b7 01       	movw	r22, r14
    2a5c:	a6 01       	movw	r20, r12
    2a5e:	95 01       	movw	r18, r10
    2a60:	0e 94 08 28 	call	0x5010	; 0x5010 <__udivmodsi4>
    2a64:	fb 01       	movw	r30, r22
    2a66:	ef 70       	andi	r30, 0x0F	; 15
    2a68:	f0 70       	andi	r31, 0x00	; 0
    2a6a:	e3 59       	subi	r30, 0x93	; 147
    2a6c:	fd 4f       	sbci	r31, 0xFD	; 253
    2a6e:	64 91       	lpm	r22, Z+
    2a70:	6f 8f       	std	Y+31, r22	; 0x1f
    2a72:	c8 01       	movw	r24, r16
    2a74:	b7 01       	movw	r22, r14
    2a76:	a6 01       	movw	r20, r12
    2a78:	95 01       	movw	r18, r10
    2a7a:	0e 94 08 28 	call	0x5010	; 0x5010 <__udivmodsi4>
    2a7e:	c9 01       	movw	r24, r18
    2a80:	da 01       	movw	r26, r20
    2a82:	7c 01       	movw	r14, r24
    2a84:	8d 01       	movw	r16, r26
    2a86:	8e e1       	ldi	r24, 0x1E	; 30
    2a88:	48 2e       	mov	r4, r24
    2a8a:	51 2c       	mov	r5, r1
    2a8c:	4c 0e       	add	r4, r28
    2a8e:	5d 1e       	adc	r5, r29
    2a90:	39 a0       	ldd	r3, Y+33	; 0x21
    2a92:	25 c0       	rjmp	.+74     	; 0x2ade <rprintfNum+0xfa>
    2a94:	e1 14       	cp	r14, r1
    2a96:	f1 04       	cpc	r15, r1
    2a98:	01 05       	cpc	r16, r1
    2a9a:	11 05       	cpc	r17, r1
    2a9c:	c9 f0       	breq	.+50     	; 0x2ad0 <rprintfNum+0xec>
    2a9e:	c8 01       	movw	r24, r16
    2aa0:	b7 01       	movw	r22, r14
    2aa2:	a6 01       	movw	r20, r12
    2aa4:	95 01       	movw	r18, r10
    2aa6:	0e 94 08 28 	call	0x5010	; 0x5010 <__udivmodsi4>
    2aaa:	fb 01       	movw	r30, r22
    2aac:	ef 70       	andi	r30, 0x0F	; 15
    2aae:	f0 70       	andi	r31, 0x00	; 0
    2ab0:	e3 59       	subi	r30, 0x93	; 147
    2ab2:	fd 4f       	sbci	r31, 0xFD	; 253
    2ab4:	64 91       	lpm	r22, Z+
    2ab6:	f2 01       	movw	r30, r4
    2ab8:	60 83       	st	Z, r22
    2aba:	c8 01       	movw	r24, r16
    2abc:	b7 01       	movw	r22, r14
    2abe:	a6 01       	movw	r20, r12
    2ac0:	95 01       	movw	r18, r10
    2ac2:	0e 94 08 28 	call	0x5010	; 0x5010 <__udivmodsi4>
    2ac6:	c9 01       	movw	r24, r18
    2ac8:	da 01       	movw	r26, r20
    2aca:	7c 01       	movw	r14, r24
    2acc:	8d 01       	movw	r16, r26
    2ace:	03 c0       	rjmp	.+6      	; 0x2ad6 <rprintfNum+0xf2>
    2ad0:	2b a1       	ldd	r18, Y+35	; 0x23
    2ad2:	f2 01       	movw	r30, r4
    2ad4:	20 83       	st	Z, r18
    2ad6:	3a 94       	dec	r3
    2ad8:	08 94       	sec
    2ada:	41 08       	sbc	r4, r1
    2adc:	51 08       	sbc	r5, r1
    2ade:	33 20       	and	r3, r3
    2ae0:	c9 f6       	brne	.-78     	; 0x2a94 <rprintfNum+0xb0>
    2ae2:	ce 01       	movw	r24, r28
    2ae4:	4f 96       	adiw	r24, 0x1f	; 31
    2ae6:	8c 01       	movw	r16, r24
    2ae8:	39 a1       	ldd	r19, Y+33	; 0x21
    2aea:	03 1b       	sub	r16, r19
    2aec:	11 09       	sbc	r17, r1
    2aee:	8a a1       	ldd	r24, Y+34	; 0x22
    2af0:	88 23       	and	r24, r24
    2af2:	b1 f0       	breq	.+44     	; 0x2b20 <rprintfNum+0x13c>
    2af4:	97 fe       	sbrs	r9, 7
    2af6:	02 c0       	rjmp	.+4      	; 0x2afc <rprintfNum+0x118>
    2af8:	8d e2       	ldi	r24, 0x2D	; 45
    2afa:	08 c0       	rjmp	.+16     	; 0x2b0c <rprintfNum+0x128>
    2afc:	61 14       	cp	r6, r1
    2afe:	71 04       	cpc	r7, r1
    2b00:	81 04       	cpc	r8, r1
    2b02:	91 04       	cpc	r9, r1
    2b04:	11 f0       	breq	.+4      	; 0x2b0a <rprintfNum+0x126>
    2b06:	8b e2       	ldi	r24, 0x2B	; 43
    2b08:	01 c0       	rjmp	.+2      	; 0x2b0c <rprintfNum+0x128>
    2b0a:	80 e2       	ldi	r24, 0x20	; 32
    2b0c:	f8 01       	movw	r30, r16
    2b0e:	82 93       	st	-Z, r24
    2b10:	8f 01       	movw	r16, r30
    2b12:	06 c0       	rjmp	.+12     	; 0x2b20 <rprintfNum+0x13c>
    2b14:	f8 01       	movw	r30, r16
    2b16:	81 91       	ld	r24, Z+
    2b18:	8f 01       	movw	r16, r30
    2b1a:	0e 94 a2 14 	call	0x2944	; 0x2944 <rprintfChar>
    2b1e:	2a 94       	dec	r2
    2b20:	22 20       	and	r2, r2
    2b22:	c1 f7       	brne	.-16     	; 0x2b14 <rprintfNum+0x130>
    2b24:	a3 96       	adiw	r28, 0x23	; 35
    2b26:	0f b6       	in	r0, 0x3f	; 63
    2b28:	f8 94       	cli
    2b2a:	de bf       	out	0x3e, r29	; 62
    2b2c:	0f be       	out	0x3f, r0	; 63
    2b2e:	cd bf       	out	0x3d, r28	; 61
    2b30:	cf 91       	pop	r28
    2b32:	df 91       	pop	r29
    2b34:	1f 91       	pop	r17
    2b36:	0f 91       	pop	r16
    2b38:	ff 90       	pop	r15
    2b3a:	ef 90       	pop	r14
    2b3c:	df 90       	pop	r13
    2b3e:	cf 90       	pop	r12
    2b40:	bf 90       	pop	r11
    2b42:	af 90       	pop	r10
    2b44:	9f 90       	pop	r9
    2b46:	8f 90       	pop	r8
    2b48:	7f 90       	pop	r7
    2b4a:	6f 90       	pop	r6
    2b4c:	5f 90       	pop	r5
    2b4e:	4f 90       	pop	r4
    2b50:	3f 90       	pop	r3
    2b52:	2f 90       	pop	r2
    2b54:	08 95       	ret

00002b56 <rprintf1RamRom>:
    2b56:	7f 92       	push	r7
    2b58:	8f 92       	push	r8
    2b5a:	9f 92       	push	r9
    2b5c:	af 92       	push	r10
    2b5e:	bf 92       	push	r11
    2b60:	cf 92       	push	r12
    2b62:	df 92       	push	r13
    2b64:	ef 92       	push	r14
    2b66:	ff 92       	push	r15
    2b68:	0f 93       	push	r16
    2b6a:	1f 93       	push	r17
    2b6c:	df 93       	push	r29
    2b6e:	cf 93       	push	r28
    2b70:	0f 92       	push	r0
    2b72:	cd b7       	in	r28, 0x3d	; 61
    2b74:	de b7       	in	r29, 0x3e	; 62
    2b76:	79 88       	ldd	r7, Y+17	; 0x11
    2b78:	ca 88       	ldd	r12, Y+18	; 0x12
    2b7a:	db 88       	ldd	r13, Y+19	; 0x13
    2b7c:	64 e1       	ldi	r22, 0x14	; 20
    2b7e:	e6 2e       	mov	r14, r22
    2b80:	f1 2c       	mov	r15, r1
    2b82:	ec 0e       	add	r14, r28
    2b84:	fd 1e       	adc	r15, r29
    2b86:	17 c0       	rjmp	.+46     	; 0x2bb6 <rprintf1RamRom+0x60>
    2b88:	88 23       	and	r24, r24
    2b8a:	89 f4       	brne	.+34     	; 0x2bae <rprintf1RamRom+0x58>
    2b8c:	80 e0       	ldi	r24, 0x00	; 0
    2b8e:	90 e0       	ldi	r25, 0x00	; 0
    2b90:	0f 90       	pop	r0
    2b92:	cf 91       	pop	r28
    2b94:	df 91       	pop	r29
    2b96:	1f 91       	pop	r17
    2b98:	0f 91       	pop	r16
    2b9a:	ff 90       	pop	r15
    2b9c:	ef 90       	pop	r14
    2b9e:	df 90       	pop	r13
    2ba0:	cf 90       	pop	r12
    2ba2:	bf 90       	pop	r11
    2ba4:	af 90       	pop	r10
    2ba6:	9f 90       	pop	r9
    2ba8:	8f 90       	pop	r8
    2baa:	7f 90       	pop	r7
    2bac:	08 95       	ret
    2bae:	0e 94 a2 14 	call	0x2944	; 0x2944 <rprintfChar>
    2bb2:	57 01       	movw	r10, r14
    2bb4:	75 01       	movw	r14, r10
    2bb6:	96 01       	movw	r18, r12
    2bb8:	2f 5f       	subi	r18, 0xFF	; 255
    2bba:	3f 4f       	sbci	r19, 0xFF	; 255
    2bbc:	77 20       	and	r7, r7
    2bbe:	21 f0       	breq	.+8      	; 0x2bc8 <rprintf1RamRom+0x72>
    2bc0:	f6 01       	movw	r30, r12
    2bc2:	69 01       	movw	r12, r18
    2bc4:	84 91       	lpm	r24, Z+
    2bc6:	03 c0       	rjmp	.+6      	; 0x2bce <rprintf1RamRom+0x78>
    2bc8:	f6 01       	movw	r30, r12
    2bca:	80 81       	ld	r24, Z
    2bcc:	69 01       	movw	r12, r18
    2bce:	85 32       	cpi	r24, 0x25	; 37
    2bd0:	d9 f6       	brne	.-74     	; 0x2b88 <rprintf1RamRom+0x32>
    2bd2:	2f 5f       	subi	r18, 0xFF	; 255
    2bd4:	3f 4f       	sbci	r19, 0xFF	; 255
    2bd6:	77 20       	and	r7, r7
    2bd8:	21 f0       	breq	.+8      	; 0x2be2 <rprintf1RamRom+0x8c>
    2bda:	f6 01       	movw	r30, r12
    2bdc:	69 01       	movw	r12, r18
    2bde:	94 91       	lpm	r25, Z+
    2be0:	03 c0       	rjmp	.+6      	; 0x2be8 <rprintf1RamRom+0x92>
    2be2:	f6 01       	movw	r30, r12
    2be4:	90 81       	ld	r25, Z
    2be6:	69 01       	movw	r12, r18
    2be8:	93 37       	cpi	r25, 0x73	; 115
    2bea:	a1 f0       	breq	.+40     	; 0x2c14 <rprintf1RamRom+0xbe>
    2bec:	94 37       	cpi	r25, 0x74	; 116
    2bee:	38 f4       	brcc	.+14     	; 0x2bfe <rprintf1RamRom+0xa8>
    2bf0:	93 36       	cpi	r25, 0x63	; 99
    2bf2:	d9 f0       	breq	.+54     	; 0x2c2a <rprintf1RamRom+0xd4>
    2bf4:	94 36       	cpi	r25, 0x64	; 100
    2bf6:	41 f0       	breq	.+16     	; 0x2c08 <rprintf1RamRom+0xb2>
    2bf8:	95 32       	cpi	r25, 0x25	; 37
    2bfa:	09 f5       	brne	.+66     	; 0x2c3e <rprintf1RamRom+0xe8>
    2bfc:	25 c0       	rjmp	.+74     	; 0x2c48 <rprintf1RamRom+0xf2>
    2bfe:	95 37       	cpi	r25, 0x75	; 117
    2c00:	19 f0       	breq	.+6      	; 0x2c08 <rprintf1RamRom+0xb2>
    2c02:	98 37       	cpi	r25, 0x78	; 120
    2c04:	e1 f4       	brne	.+56     	; 0x2c3e <rprintf1RamRom+0xe8>
    2c06:	22 c0       	rjmp	.+68     	; 0x2c4c <rprintf1RamRom+0xf6>
    2c08:	00 e1       	ldi	r16, 0x10	; 16
    2c0a:	17 e2       	ldi	r17, 0x27	; 39
    2c0c:	5a e0       	ldi	r21, 0x0A	; 10
    2c0e:	85 2e       	mov	r8, r21
    2c10:	91 2c       	mov	r9, r1
    2c12:	21 c0       	rjmp	.+66     	; 0x2c56 <rprintf1RamRom+0x100>
    2c14:	42 e0       	ldi	r20, 0x02	; 2
    2c16:	a4 2e       	mov	r10, r20
    2c18:	b1 2c       	mov	r11, r1
    2c1a:	ae 0c       	add	r10, r14
    2c1c:	bf 1c       	adc	r11, r15
    2c1e:	f7 01       	movw	r30, r14
    2c20:	80 81       	ld	r24, Z
    2c22:	91 81       	ldd	r25, Z+1	; 0x01
    2c24:	0e 94 c4 14 	call	0x2988	; 0x2988 <rprintfStr>
    2c28:	c5 cf       	rjmp	.-118    	; 0x2bb4 <rprintf1RamRom+0x5e>
    2c2a:	32 e0       	ldi	r19, 0x02	; 2
    2c2c:	a3 2e       	mov	r10, r19
    2c2e:	b1 2c       	mov	r11, r1
    2c30:	ae 0c       	add	r10, r14
    2c32:	bf 1c       	adc	r11, r15
    2c34:	f7 01       	movw	r30, r14
    2c36:	80 81       	ld	r24, Z
    2c38:	0e 94 a2 14 	call	0x2944	; 0x2944 <rprintfChar>
    2c3c:	bb cf       	rjmp	.-138    	; 0x2bb4 <rprintf1RamRom+0x5e>
    2c3e:	85 e2       	ldi	r24, 0x25	; 37
    2c40:	99 83       	std	Y+1, r25	; 0x01
    2c42:	0e 94 a2 14 	call	0x2944	; 0x2944 <rprintfChar>
    2c46:	99 81       	ldd	r25, Y+1	; 0x01
    2c48:	89 2f       	mov	r24, r25
    2c4a:	b1 cf       	rjmp	.-158    	; 0x2bae <rprintf1RamRom+0x58>
    2c4c:	00 e0       	ldi	r16, 0x00	; 0
    2c4e:	10 e1       	ldi	r17, 0x10	; 16
    2c50:	20 e1       	ldi	r18, 0x10	; 16
    2c52:	82 2e       	mov	r8, r18
    2c54:	91 2c       	mov	r9, r1
    2c56:	82 e0       	ldi	r24, 0x02	; 2
    2c58:	a8 2e       	mov	r10, r24
    2c5a:	b1 2c       	mov	r11, r1
    2c5c:	ae 0c       	add	r10, r14
    2c5e:	bf 1c       	adc	r11, r15
    2c60:	f7 01       	movw	r30, r14
    2c62:	e0 80       	ld	r14, Z
    2c64:	f1 80       	ldd	r15, Z+1	; 0x01
    2c66:	94 36       	cpi	r25, 0x64	; 100
    2c68:	51 f4       	brne	.+20     	; 0x2c7e <rprintf1RamRom+0x128>
    2c6a:	f7 fe       	sbrs	r15, 7
    2c6c:	14 c0       	rjmp	.+40     	; 0x2c96 <rprintf1RamRom+0x140>
    2c6e:	f0 94       	com	r15
    2c70:	e1 94       	neg	r14
    2c72:	f1 08       	sbc	r15, r1
    2c74:	f3 94       	inc	r15
    2c76:	8d e2       	ldi	r24, 0x2D	; 45
    2c78:	0e 94 a2 14 	call	0x2944	; 0x2944 <rprintfChar>
    2c7c:	0c c0       	rjmp	.+24     	; 0x2c96 <rprintf1RamRom+0x140>
    2c7e:	95 37       	cpi	r25, 0x75	; 117
    2c80:	69 f4       	brne	.+26     	; 0x2c9c <rprintf1RamRom+0x146>
    2c82:	09 c0       	rjmp	.+18     	; 0x2c96 <rprintf1RamRom+0x140>
    2c84:	c8 01       	movw	r24, r16
    2c86:	6a e0       	ldi	r22, 0x0A	; 10
    2c88:	70 e0       	ldi	r23, 0x00	; 0
    2c8a:	0e 94 e1 27 	call	0x4fc2	; 0x4fc2 <__udivmodhi4>
    2c8e:	8b 01       	movw	r16, r22
    2c90:	62 30       	cpi	r22, 0x02	; 2
    2c92:	71 05       	cpc	r23, r1
    2c94:	18 f0       	brcs	.+6      	; 0x2c9c <rprintf1RamRom+0x146>
    2c96:	e0 16       	cp	r14, r16
    2c98:	f1 06       	cpc	r15, r17
    2c9a:	a0 f3       	brcs	.-24     	; 0x2c84 <rprintf1RamRom+0x12e>
    2c9c:	c7 01       	movw	r24, r14
    2c9e:	b8 01       	movw	r22, r16
    2ca0:	0e 94 e1 27 	call	0x4fc2	; 0x4fc2 <__udivmodhi4>
    2ca4:	86 2f       	mov	r24, r22
    2ca6:	0e 94 e7 14 	call	0x29ce	; 0x29ce <rprintfu04>
    2caa:	c7 01       	movw	r24, r14
    2cac:	b8 01       	movw	r22, r16
    2cae:	0e 94 e1 27 	call	0x4fc2	; 0x4fc2 <__udivmodhi4>
    2cb2:	7c 01       	movw	r14, r24
    2cb4:	c8 01       	movw	r24, r16
    2cb6:	b4 01       	movw	r22, r8
    2cb8:	0e 94 e1 27 	call	0x4fc2	; 0x4fc2 <__udivmodhi4>
    2cbc:	8b 01       	movw	r16, r22
    2cbe:	61 15       	cp	r22, r1
    2cc0:	71 05       	cpc	r23, r1
    2cc2:	61 f7       	brne	.-40     	; 0x2c9c <rprintf1RamRom+0x146>
    2cc4:	77 cf       	rjmp	.-274    	; 0x2bb4 <rprintf1RamRom+0x5e>

00002cc6 <__spiSWOff>:
    2cc6:	08 95       	ret

00002cc8 <__spiSWSetClock>:
    2cc8:	08 95       	ret

00002cca <__spiSWSetDataOrder>:
    2cca:	08 95       	ret

00002ccc <__spiWriteMOSI>:
    2ccc:	1f 93       	push	r17
    2cce:	fc 01       	movw	r30, r24
    2cd0:	16 2f       	mov	r17, r22
    2cd2:	80 85       	ldd	r24, Z+8	; 0x08
    2cd4:	24 85       	ldd	r18, Z+12	; 0x0c
    2cd6:	35 85       	ldd	r19, Z+13	; 0x0d
    2cd8:	88 23       	and	r24, r24
    2cda:	39 f4       	brne	.+14     	; 0x2cea <__spiWriteMOSI+0x1e>
    2cdc:	60 78       	andi	r22, 0x80	; 128
    2cde:	c9 01       	movw	r24, r18
    2ce0:	0e 94 e5 12 	call	0x25ca	; 0x25ca <pin_set>
    2ce4:	81 2f       	mov	r24, r17
    2ce6:	88 0f       	add	r24, r24
    2ce8:	06 c0       	rjmp	.+12     	; 0x2cf6 <__spiWriteMOSI+0x2a>
    2cea:	61 70       	andi	r22, 0x01	; 1
    2cec:	c9 01       	movw	r24, r18
    2cee:	0e 94 e5 12 	call	0x25ca	; 0x25ca <pin_set>
    2cf2:	81 2f       	mov	r24, r17
    2cf4:	86 95       	lsr	r24
    2cf6:	1f 91       	pop	r17
    2cf8:	08 95       	ret

00002cfa <select>:
    2cfa:	fc 01       	movw	r30, r24
    2cfc:	66 23       	and	r22, r22
    2cfe:	29 f0       	breq	.+10     	; 0x2d0a <select+0x10>
    2d00:	80 81       	ld	r24, Z
    2d02:	91 81       	ldd	r25, Z+1	; 0x01
    2d04:	67 81       	ldd	r22, Z+7	; 0x07
    2d06:	0e 94 66 16 	call	0x2ccc	; 0x2ccc <__spiWriteMOSI>
    2d0a:	08 95       	ret

00002d0c <writeMany>:
    2d0c:	9f 92       	push	r9
    2d0e:	af 92       	push	r10
    2d10:	bf 92       	push	r11
    2d12:	cf 92       	push	r12
    2d14:	df 92       	push	r13
    2d16:	ef 92       	push	r14
    2d18:	ff 92       	push	r15
    2d1a:	0f 93       	push	r16
    2d1c:	1f 93       	push	r17
    2d1e:	cf 93       	push	r28
    2d20:	df 93       	push	r29
    2d22:	5c 01       	movw	r10, r24
    2d24:	fb 01       	movw	r30, r22
    2d26:	8a 01       	movw	r16, r20
    2d28:	dc 01       	movw	r26, r24
    2d2a:	4d 91       	ld	r20, X+
    2d2c:	5c 91       	ld	r21, X
    2d2e:	da 01       	movw	r26, r20
    2d30:	16 96       	adiw	r26, 0x06	; 6
    2d32:	8c 91       	ld	r24, X
    2d34:	16 97       	sbiw	r26, 0x06	; 6
    2d36:	63 e0       	ldi	r22, 0x03	; 3
    2d38:	0e 94 d5 27 	call	0x4faa	; 0x4faa <__udivmodqi4>
    2d3c:	e8 2e       	mov	r14, r24
    2d3e:	bf 01       	movw	r22, r30
    2d40:	1c 96       	adiw	r26, 0x0c	; 12
    2d42:	8d 91       	ld	r24, X+
    2d44:	9c 91       	ld	r25, X
    2d46:	1d 97       	sbiw	r26, 0x0d	; 13
    2d48:	fc 01       	movw	r30, r24
    2d4a:	a5 91       	lpm	r26, Z+
    2d4c:	b4 91       	lpm	r27, Z+
    2d4e:	fd 01       	movw	r30, r26
    2d50:	c5 91       	lpm	r28, Z+
    2d52:	d4 91       	lpm	r29, Z+
    2d54:	02 96       	adiw	r24, 0x02	; 2
    2d56:	fc 01       	movw	r30, r24
    2d58:	f4 90       	lpm	r15, Z+
    2d5a:	da 01       	movw	r26, r20
    2d5c:	50 96       	adiw	r26, 0x10	; 16
    2d5e:	8d 91       	ld	r24, X+
    2d60:	9c 91       	ld	r25, X
    2d62:	51 97       	sbiw	r26, 0x11	; 17
    2d64:	fc 01       	movw	r30, r24
    2d66:	a5 91       	lpm	r26, Z+
    2d68:	b4 91       	lpm	r27, Z+
    2d6a:	fd 01       	movw	r30, r26
    2d6c:	a5 91       	lpm	r26, Z+
    2d6e:	b4 91       	lpm	r27, Z+
    2d70:	02 96       	adiw	r24, 0x02	; 2
    2d72:	fc 01       	movw	r30, r24
    2d74:	c4 90       	lpm	r12, Z+
    2d76:	fa 01       	movw	r30, r20
    2d78:	97 80       	ldd	r9, Z+7	; 0x07
    2d7a:	f1 e0       	ldi	r31, 0x01	; 1
    2d7c:	9f 22       	and	r9, r31
    2d7e:	fa 01       	movw	r30, r20
    2d80:	80 85       	ldd	r24, Z+8	; 0x08
    2d82:	88 23       	and	r24, r24
    2d84:	59 f1       	breq	.+86     	; 0x2ddc <writeMany+0xd0>
    2d86:	5a c0       	rjmp	.+180    	; 0x2e3c <writeMany+0x130>
    2d88:	fb 01       	movw	r30, r22
    2d8a:	90 81       	ld	r25, Z
    2d8c:	20 e0       	ldi	r18, 0x00	; 0
    2d8e:	30 e0       	ldi	r19, 0x00	; 0
    2d90:	99 20       	and	r9, r9
    2d92:	19 f0       	breq	.+6      	; 0x2d9a <writeMany+0x8e>
    2d94:	8c 91       	ld	r24, X
    2d96:	8c 25       	eor	r24, r12
    2d98:	8c 93       	st	X, r24
    2d9a:	97 ff       	sbrs	r25, 7
    2d9c:	03 c0       	rjmp	.+6      	; 0x2da4 <writeMany+0x98>
    2d9e:	88 81       	ld	r24, Y
    2da0:	8f 29       	or	r24, r15
    2da2:	02 c0       	rjmp	.+4      	; 0x2da8 <writeMany+0x9c>
    2da4:	88 81       	ld	r24, Y
    2da6:	8d 21       	and	r24, r13
    2da8:	88 83       	st	Y, r24
    2daa:	99 20       	and	r9, r9
    2dac:	19 f4       	brne	.+6      	; 0x2db4 <writeMany+0xa8>
    2dae:	8c 91       	ld	r24, X
    2db0:	8c 25       	eor	r24, r12
    2db2:	8c 93       	st	X, r24
    2db4:	ee 20       	and	r14, r14
    2db6:	19 f0       	breq	.+6      	; 0x2dbe <writeMany+0xb2>
    2db8:	8e 2d       	mov	r24, r14
    2dba:	8a 95       	dec	r24
    2dbc:	f1 f7       	brne	.-4      	; 0x2dba <writeMany+0xae>
    2dbe:	8c 91       	ld	r24, X
    2dc0:	8c 25       	eor	r24, r12
    2dc2:	8c 93       	st	X, r24
    2dc4:	2f 5f       	subi	r18, 0xFF	; 255
    2dc6:	3f 4f       	sbci	r19, 0xFF	; 255
    2dc8:	28 30       	cpi	r18, 0x08	; 8
    2dca:	31 05       	cpc	r19, r1
    2dcc:	11 f0       	breq	.+4      	; 0x2dd2 <writeMany+0xc6>
    2dce:	99 0f       	add	r25, r25
    2dd0:	df cf       	rjmp	.-66     	; 0x2d90 <writeMany+0x84>
    2dd2:	6f 5f       	subi	r22, 0xFF	; 255
    2dd4:	7f 4f       	sbci	r23, 0xFF	; 255
    2dd6:	01 50       	subi	r16, 0x01	; 1
    2dd8:	10 40       	sbci	r17, 0x00	; 0
    2dda:	02 c0       	rjmp	.+4      	; 0x2de0 <writeMany+0xd4>
    2ddc:	df 2c       	mov	r13, r15
    2dde:	d0 94       	com	r13
    2de0:	01 15       	cp	r16, r1
    2de2:	11 05       	cpc	r17, r1
    2de4:	89 f6       	brne	.-94     	; 0x2d88 <writeMany+0x7c>
    2de6:	2f c0       	rjmp	.+94     	; 0x2e46 <writeMany+0x13a>
    2de8:	fb 01       	movw	r30, r22
    2dea:	90 81       	ld	r25, Z
    2dec:	20 e0       	ldi	r18, 0x00	; 0
    2dee:	30 e0       	ldi	r19, 0x00	; 0
    2df0:	99 20       	and	r9, r9
    2df2:	19 f0       	breq	.+6      	; 0x2dfa <writeMany+0xee>
    2df4:	8c 91       	ld	r24, X
    2df6:	8c 25       	eor	r24, r12
    2df8:	8c 93       	st	X, r24
    2dfa:	90 ff       	sbrs	r25, 0
    2dfc:	03 c0       	rjmp	.+6      	; 0x2e04 <writeMany+0xf8>
    2dfe:	88 81       	ld	r24, Y
    2e00:	8f 29       	or	r24, r15
    2e02:	02 c0       	rjmp	.+4      	; 0x2e08 <writeMany+0xfc>
    2e04:	88 81       	ld	r24, Y
    2e06:	8d 21       	and	r24, r13
    2e08:	88 83       	st	Y, r24
    2e0a:	99 20       	and	r9, r9
    2e0c:	19 f4       	brne	.+6      	; 0x2e14 <writeMany+0x108>
    2e0e:	8c 91       	ld	r24, X
    2e10:	8c 25       	eor	r24, r12
    2e12:	8c 93       	st	X, r24
    2e14:	ee 20       	and	r14, r14
    2e16:	19 f0       	breq	.+6      	; 0x2e1e <writeMany+0x112>
    2e18:	8e 2d       	mov	r24, r14
    2e1a:	8a 95       	dec	r24
    2e1c:	f1 f7       	brne	.-4      	; 0x2e1a <writeMany+0x10e>
    2e1e:	8c 91       	ld	r24, X
    2e20:	8c 25       	eor	r24, r12
    2e22:	8c 93       	st	X, r24
    2e24:	2f 5f       	subi	r18, 0xFF	; 255
    2e26:	3f 4f       	sbci	r19, 0xFF	; 255
    2e28:	28 30       	cpi	r18, 0x08	; 8
    2e2a:	31 05       	cpc	r19, r1
    2e2c:	11 f0       	breq	.+4      	; 0x2e32 <writeMany+0x126>
    2e2e:	96 95       	lsr	r25
    2e30:	df cf       	rjmp	.-66     	; 0x2df0 <writeMany+0xe4>
    2e32:	6f 5f       	subi	r22, 0xFF	; 255
    2e34:	7f 4f       	sbci	r23, 0xFF	; 255
    2e36:	01 50       	subi	r16, 0x01	; 1
    2e38:	10 40       	sbci	r17, 0x00	; 0
    2e3a:	02 c0       	rjmp	.+4      	; 0x2e40 <writeMany+0x134>
    2e3c:	df 2c       	mov	r13, r15
    2e3e:	d0 94       	com	r13
    2e40:	01 15       	cp	r16, r1
    2e42:	11 05       	cpc	r17, r1
    2e44:	89 f6       	brne	.-94     	; 0x2de8 <writeMany+0xdc>
    2e46:	ca 01       	movw	r24, r20
    2e48:	d5 01       	movw	r26, r10
    2e4a:	17 96       	adiw	r26, 0x07	; 7
    2e4c:	6c 91       	ld	r22, X
    2e4e:	0e 94 66 16 	call	0x2ccc	; 0x2ccc <__spiWriteMOSI>
    2e52:	df 91       	pop	r29
    2e54:	cf 91       	pop	r28
    2e56:	1f 91       	pop	r17
    2e58:	0f 91       	pop	r16
    2e5a:	ff 90       	pop	r15
    2e5c:	ef 90       	pop	r14
    2e5e:	df 90       	pop	r13
    2e60:	cf 90       	pop	r12
    2e62:	bf 90       	pop	r11
    2e64:	af 90       	pop	r10
    2e66:	9f 90       	pop	r9
    2e68:	08 95       	ret

00002e6a <readMany>:
    2e6a:	3f 92       	push	r3
    2e6c:	4f 92       	push	r4
    2e6e:	5f 92       	push	r5
    2e70:	6f 92       	push	r6
    2e72:	7f 92       	push	r7
    2e74:	8f 92       	push	r8
    2e76:	9f 92       	push	r9
    2e78:	af 92       	push	r10
    2e7a:	bf 92       	push	r11
    2e7c:	cf 92       	push	r12
    2e7e:	df 92       	push	r13
    2e80:	ef 92       	push	r14
    2e82:	ff 92       	push	r15
    2e84:	0f 93       	push	r16
    2e86:	1f 93       	push	r17
    2e88:	cf 93       	push	r28
    2e8a:	df 93       	push	r29
    2e8c:	fc 01       	movw	r30, r24
    2e8e:	db 01       	movw	r26, r22
    2e90:	4a 01       	movw	r8, r20
    2e92:	e0 80       	ld	r14, Z
    2e94:	f1 80       	ldd	r15, Z+1	; 0x01
    2e96:	e7 01       	movw	r28, r14
    2e98:	8e 81       	ldd	r24, Y+6	; 0x06
    2e9a:	63 e0       	ldi	r22, 0x03	; 3
    2e9c:	0e 94 d5 27 	call	0x4faa	; 0x4faa <__udivmodqi4>
    2ea0:	b8 2e       	mov	r11, r24
    2ea2:	2d 01       	movw	r4, r26
    2ea4:	c7 01       	movw	r24, r14
    2ea6:	67 81       	ldd	r22, Z+7	; 0x07
    2ea8:	0e 94 66 16 	call	0x2ccc	; 0x2ccc <__spiWriteMOSI>
    2eac:	4e 85       	ldd	r20, Y+14	; 0x0e
    2eae:	5f 85       	ldd	r21, Y+15	; 0x0f
    2eb0:	fa 01       	movw	r30, r20
    2eb2:	85 91       	lpm	r24, Z+
    2eb4:	94 91       	lpm	r25, Z+
    2eb6:	04 96       	adiw	r24, 0x04	; 4
    2eb8:	fc 01       	movw	r30, r24
    2eba:	65 90       	lpm	r6, Z+
    2ebc:	74 90       	lpm	r7, Z+
    2ebe:	4e 5f       	subi	r20, 0xFE	; 254
    2ec0:	5f 4f       	sbci	r21, 0xFF	; 255
    2ec2:	fa 01       	movw	r30, r20
    2ec4:	34 90       	lpm	r3, Z+
    2ec6:	88 89       	ldd	r24, Y+16	; 0x10
    2ec8:	99 89       	ldd	r25, Y+17	; 0x11
    2eca:	fc 01       	movw	r30, r24
    2ecc:	45 91       	lpm	r20, Z+
    2ece:	54 91       	lpm	r21, Z+
    2ed0:	fa 01       	movw	r30, r20
    2ed2:	c5 91       	lpm	r28, Z+
    2ed4:	d4 91       	lpm	r29, Z+
    2ed6:	02 96       	adiw	r24, 0x02	; 2
    2ed8:	fc 01       	movw	r30, r24
    2eda:	04 91       	lpm	r16, Z+
    2edc:	d7 01       	movw	r26, r14
    2ede:	17 96       	adiw	r26, 0x07	; 7
    2ee0:	ac 90       	ld	r10, X
    2ee2:	b1 e0       	ldi	r27, 0x01	; 1
    2ee4:	ab 22       	and	r10, r27
    2ee6:	f7 01       	movw	r30, r14
    2ee8:	80 85       	ldd	r24, Z+8	; 0x08
    2eea:	88 23       	and	r24, r24
    2eec:	09 f4       	brne	.+2      	; 0x2ef0 <readMany+0x86>
    2eee:	43 c0       	rjmp	.+134    	; 0x2f76 <readMany+0x10c>
    2ef0:	85 c0       	rjmp	.+266    	; 0x2ffc <readMany+0x192>
    2ef2:	10 e0       	ldi	r17, 0x00	; 0
    2ef4:	cc 24       	eor	r12, r12
    2ef6:	dd 24       	eor	r13, r13
    2ef8:	11 0f       	add	r17, r17
    2efa:	aa 20       	and	r10, r10
    2efc:	c1 f4       	brne	.+48     	; 0x2f2e <readMany+0xc4>
    2efe:	d7 01       	movw	r26, r14
    2f00:	1c 96       	adiw	r26, 0x0c	; 12
    2f02:	8d 91       	ld	r24, X+
    2f04:	9c 91       	ld	r25, X
    2f06:	1d 97       	sbiw	r26, 0x0d	; 13
    2f08:	0e 94 c1 12 	call	0x2582	; 0x2582 <pin_high>
    2f0c:	f3 01       	movw	r30, r6
    2f0e:	80 81       	ld	r24, Z
    2f10:	83 21       	and	r24, r3
    2f12:	09 f0       	breq	.+2      	; 0x2f16 <readMany+0xac>
    2f14:	11 60       	ori	r17, 0x01	; 1
    2f16:	88 81       	ld	r24, Y
    2f18:	80 27       	eor	r24, r16
    2f1a:	88 83       	st	Y, r24
    2f1c:	bb 20       	and	r11, r11
    2f1e:	19 f0       	breq	.+6      	; 0x2f26 <readMany+0xbc>
    2f20:	8b 2d       	mov	r24, r11
    2f22:	8a 95       	dec	r24
    2f24:	f1 f7       	brne	.-4      	; 0x2f22 <readMany+0xb8>
    2f26:	88 81       	ld	r24, Y
    2f28:	80 27       	eor	r24, r16
    2f2a:	88 83       	st	Y, r24
    2f2c:	17 c0       	rjmp	.+46     	; 0x2f5c <readMany+0xf2>
    2f2e:	88 81       	ld	r24, Y
    2f30:	80 27       	eor	r24, r16
    2f32:	88 83       	st	Y, r24
    2f34:	d7 01       	movw	r26, r14
    2f36:	1c 96       	adiw	r26, 0x0c	; 12
    2f38:	8d 91       	ld	r24, X+
    2f3a:	9c 91       	ld	r25, X
    2f3c:	1d 97       	sbiw	r26, 0x0d	; 13
    2f3e:	0e 94 c1 12 	call	0x2582	; 0x2582 <pin_high>
    2f42:	bb 20       	and	r11, r11
    2f44:	19 f0       	breq	.+6      	; 0x2f4c <readMany+0xe2>
    2f46:	8b 2d       	mov	r24, r11
    2f48:	8a 95       	dec	r24
    2f4a:	f1 f7       	brne	.-4      	; 0x2f48 <readMany+0xde>
    2f4c:	88 81       	ld	r24, Y
    2f4e:	80 27       	eor	r24, r16
    2f50:	88 83       	st	Y, r24
    2f52:	f3 01       	movw	r30, r6
    2f54:	80 81       	ld	r24, Z
    2f56:	83 21       	and	r24, r3
    2f58:	09 f0       	breq	.+2      	; 0x2f5c <readMany+0xf2>
    2f5a:	11 60       	ori	r17, 0x01	; 1
    2f5c:	08 94       	sec
    2f5e:	c1 1c       	adc	r12, r1
    2f60:	d1 1c       	adc	r13, r1
    2f62:	f8 e0       	ldi	r31, 0x08	; 8
    2f64:	cf 16       	cp	r12, r31
    2f66:	d1 04       	cpc	r13, r1
    2f68:	39 f6       	brne	.-114    	; 0x2ef8 <readMany+0x8e>
    2f6a:	d2 01       	movw	r26, r4
    2f6c:	1d 93       	st	X+, r17
    2f6e:	2d 01       	movw	r4, r26
    2f70:	08 94       	sec
    2f72:	81 08       	sbc	r8, r1
    2f74:	91 08       	sbc	r9, r1
    2f76:	81 14       	cp	r8, r1
    2f78:	91 04       	cpc	r9, r1
    2f7a:	09 f0       	breq	.+2      	; 0x2f7e <readMany+0x114>
    2f7c:	ba cf       	rjmp	.-140    	; 0x2ef2 <readMany+0x88>
    2f7e:	42 c0       	rjmp	.+132    	; 0x3004 <readMany+0x19a>
    2f80:	10 e0       	ldi	r17, 0x00	; 0
    2f82:	cc 24       	eor	r12, r12
    2f84:	dd 24       	eor	r13, r13
    2f86:	16 95       	lsr	r17
    2f88:	aa 20       	and	r10, r10
    2f8a:	b1 f4       	brne	.+44     	; 0x2fb8 <readMany+0x14e>
    2f8c:	f7 01       	movw	r30, r14
    2f8e:	84 85       	ldd	r24, Z+12	; 0x0c
    2f90:	95 85       	ldd	r25, Z+13	; 0x0d
    2f92:	0e 94 c1 12 	call	0x2582	; 0x2582 <pin_high>
    2f96:	d3 01       	movw	r26, r6
    2f98:	8c 91       	ld	r24, X
    2f9a:	83 21       	and	r24, r3
    2f9c:	09 f0       	breq	.+2      	; 0x2fa0 <readMany+0x136>
    2f9e:	10 68       	ori	r17, 0x80	; 128
    2fa0:	88 81       	ld	r24, Y
    2fa2:	80 27       	eor	r24, r16
    2fa4:	88 83       	st	Y, r24
    2fa6:	bb 20       	and	r11, r11
    2fa8:	19 f0       	breq	.+6      	; 0x2fb0 <readMany+0x146>
    2faa:	8b 2d       	mov	r24, r11
    2fac:	8a 95       	dec	r24
    2fae:	f1 f7       	brne	.-4      	; 0x2fac <readMany+0x142>
    2fb0:	88 81       	ld	r24, Y
    2fb2:	80 27       	eor	r24, r16
    2fb4:	88 83       	st	Y, r24
    2fb6:	15 c0       	rjmp	.+42     	; 0x2fe2 <readMany+0x178>
    2fb8:	88 81       	ld	r24, Y
    2fba:	80 27       	eor	r24, r16
    2fbc:	88 83       	st	Y, r24
    2fbe:	f7 01       	movw	r30, r14
    2fc0:	84 85       	ldd	r24, Z+12	; 0x0c
    2fc2:	95 85       	ldd	r25, Z+13	; 0x0d
    2fc4:	0e 94 c1 12 	call	0x2582	; 0x2582 <pin_high>
    2fc8:	bb 20       	and	r11, r11
    2fca:	19 f0       	breq	.+6      	; 0x2fd2 <readMany+0x168>
    2fcc:	8b 2d       	mov	r24, r11
    2fce:	8a 95       	dec	r24
    2fd0:	f1 f7       	brne	.-4      	; 0x2fce <readMany+0x164>
    2fd2:	88 81       	ld	r24, Y
    2fd4:	80 27       	eor	r24, r16
    2fd6:	88 83       	st	Y, r24
    2fd8:	d3 01       	movw	r26, r6
    2fda:	8c 91       	ld	r24, X
    2fdc:	83 21       	and	r24, r3
    2fde:	09 f0       	breq	.+2      	; 0x2fe2 <readMany+0x178>
    2fe0:	10 68       	ori	r17, 0x80	; 128
    2fe2:	08 94       	sec
    2fe4:	c1 1c       	adc	r12, r1
    2fe6:	d1 1c       	adc	r13, r1
    2fe8:	b8 e0       	ldi	r27, 0x08	; 8
    2fea:	cb 16       	cp	r12, r27
    2fec:	d1 04       	cpc	r13, r1
    2fee:	59 f6       	brne	.-106    	; 0x2f86 <readMany+0x11c>
    2ff0:	f2 01       	movw	r30, r4
    2ff2:	11 93       	st	Z+, r17
    2ff4:	2f 01       	movw	r4, r30
    2ff6:	08 94       	sec
    2ff8:	81 08       	sbc	r8, r1
    2ffa:	91 08       	sbc	r9, r1
    2ffc:	81 14       	cp	r8, r1
    2ffe:	91 04       	cpc	r9, r1
    3000:	09 f0       	breq	.+2      	; 0x3004 <readMany+0x19a>
    3002:	be cf       	rjmp	.-132    	; 0x2f80 <readMany+0x116>
    3004:	df 91       	pop	r29
    3006:	cf 91       	pop	r28
    3008:	1f 91       	pop	r17
    300a:	0f 91       	pop	r16
    300c:	ff 90       	pop	r15
    300e:	ef 90       	pop	r14
    3010:	df 90       	pop	r13
    3012:	cf 90       	pop	r12
    3014:	bf 90       	pop	r11
    3016:	af 90       	pop	r10
    3018:	9f 90       	pop	r9
    301a:	8f 90       	pop	r8
    301c:	7f 90       	pop	r7
    301e:	6f 90       	pop	r6
    3020:	5f 90       	pop	r5
    3022:	4f 90       	pop	r4
    3024:	3f 90       	pop	r3
    3026:	08 95       	ret

00003028 <__spiReadMISO>:
    3028:	1f 93       	push	r17
    302a:	fc 01       	movw	r30, r24
    302c:	80 85       	ldd	r24, Z+8	; 0x08
    302e:	26 85       	ldd	r18, Z+14	; 0x0e
    3030:	37 85       	ldd	r19, Z+15	; 0x0f
    3032:	88 23       	and	r24, r24
    3034:	49 f4       	brne	.+18     	; 0x3048 <__spiReadMISO+0x20>
    3036:	16 2f       	mov	r17, r22
    3038:	11 0f       	add	r17, r17
    303a:	c9 01       	movw	r24, r18
    303c:	0e 94 00 12 	call	0x2400	; 0x2400 <pin_is_high>
    3040:	88 23       	and	r24, r24
    3042:	49 f0       	breq	.+18     	; 0x3056 <__spiReadMISO+0x2e>
    3044:	11 60       	ori	r17, 0x01	; 1
    3046:	07 c0       	rjmp	.+14     	; 0x3056 <__spiReadMISO+0x2e>
    3048:	16 2f       	mov	r17, r22
    304a:	16 95       	lsr	r17
    304c:	c9 01       	movw	r24, r18
    304e:	0e 94 00 12 	call	0x2400	; 0x2400 <pin_is_high>
    3052:	81 11       	cpse	r24, r1
    3054:	10 68       	ori	r17, 0x80	; 128
    3056:	81 2f       	mov	r24, r17
    3058:	1f 91       	pop	r17
    305a:	08 95       	ret

0000305c <__spiSWSendByte>:
    305c:	cf 92       	push	r12
    305e:	df 92       	push	r13
    3060:	ef 92       	push	r14
    3062:	ff 92       	push	r15
    3064:	0f 93       	push	r16
    3066:	1f 93       	push	r17
    3068:	cf 93       	push	r28
    306a:	df 93       	push	r29
    306c:	ec 01       	movw	r28, r24
    306e:	d6 2e       	mov	r13, r22
    3070:	8e 81       	ldd	r24, Y+6	; 0x06
    3072:	63 e0       	ldi	r22, 0x03	; 3
    3074:	0e 94 d5 27 	call	0x4faa	; 0x4faa <__udivmodqi4>
    3078:	e8 2e       	mov	r14, r24
    307a:	cf 80       	ldd	r12, Y+7	; 0x07
    307c:	81 e0       	ldi	r24, 0x01	; 1
    307e:	c8 22       	and	r12, r24
    3080:	ff 24       	eor	r15, r15
    3082:	00 e0       	ldi	r16, 0x00	; 0
    3084:	10 e0       	ldi	r17, 0x00	; 0
    3086:	cc 20       	and	r12, r12
    3088:	c1 f4       	brne	.+48     	; 0x30ba <__spiSWSendByte+0x5e>
    308a:	ce 01       	movw	r24, r28
    308c:	6d 2d       	mov	r22, r13
    308e:	0e 94 66 16 	call	0x2ccc	; 0x2ccc <__spiWriteMOSI>
    3092:	d8 2e       	mov	r13, r24
    3094:	ce 01       	movw	r24, r28
    3096:	6f 2d       	mov	r22, r15
    3098:	0e 94 14 18 	call	0x3028	; 0x3028 <__spiReadMISO>
    309c:	f8 2e       	mov	r15, r24
    309e:	88 89       	ldd	r24, Y+16	; 0x10
    30a0:	99 89       	ldd	r25, Y+17	; 0x11
    30a2:	0e 94 78 12 	call	0x24f0	; 0x24f0 <pin_toggle>
    30a6:	ee 20       	and	r14, r14
    30a8:	19 f0       	breq	.+6      	; 0x30b0 <__spiSWSendByte+0x54>
    30aa:	8e 2d       	mov	r24, r14
    30ac:	8a 95       	dec	r24
    30ae:	f1 f7       	brne	.-4      	; 0x30ac <__spiSWSendByte+0x50>
    30b0:	88 89       	ldd	r24, Y+16	; 0x10
    30b2:	99 89       	ldd	r25, Y+17	; 0x11
    30b4:	0e 94 78 12 	call	0x24f0	; 0x24f0 <pin_toggle>
    30b8:	17 c0       	rjmp	.+46     	; 0x30e8 <__spiSWSendByte+0x8c>
    30ba:	88 89       	ldd	r24, Y+16	; 0x10
    30bc:	99 89       	ldd	r25, Y+17	; 0x11
    30be:	0e 94 78 12 	call	0x24f0	; 0x24f0 <pin_toggle>
    30c2:	ce 01       	movw	r24, r28
    30c4:	6d 2d       	mov	r22, r13
    30c6:	0e 94 66 16 	call	0x2ccc	; 0x2ccc <__spiWriteMOSI>
    30ca:	d8 2e       	mov	r13, r24
    30cc:	ee 20       	and	r14, r14
    30ce:	19 f0       	breq	.+6      	; 0x30d6 <__spiSWSendByte+0x7a>
    30d0:	8e 2d       	mov	r24, r14
    30d2:	8a 95       	dec	r24
    30d4:	f1 f7       	brne	.-4      	; 0x30d2 <__spiSWSendByte+0x76>
    30d6:	88 89       	ldd	r24, Y+16	; 0x10
    30d8:	99 89       	ldd	r25, Y+17	; 0x11
    30da:	0e 94 78 12 	call	0x24f0	; 0x24f0 <pin_toggle>
    30de:	ce 01       	movw	r24, r28
    30e0:	6f 2d       	mov	r22, r15
    30e2:	0e 94 14 18 	call	0x3028	; 0x3028 <__spiReadMISO>
    30e6:	f8 2e       	mov	r15, r24
    30e8:	0f 5f       	subi	r16, 0xFF	; 255
    30ea:	1f 4f       	sbci	r17, 0xFF	; 255
    30ec:	08 30       	cpi	r16, 0x08	; 8
    30ee:	11 05       	cpc	r17, r1
    30f0:	51 f6       	brne	.-108    	; 0x3086 <__spiSWSendByte+0x2a>
    30f2:	8c 85       	ldd	r24, Y+12	; 0x0c
    30f4:	9d 85       	ldd	r25, Y+13	; 0x0d
    30f6:	0e 94 c1 12 	call	0x2582	; 0x2582 <pin_high>
    30fa:	8f 2d       	mov	r24, r15
    30fc:	df 91       	pop	r29
    30fe:	cf 91       	pop	r28
    3100:	1f 91       	pop	r17
    3102:	0f 91       	pop	r16
    3104:	ff 90       	pop	r15
    3106:	ef 90       	pop	r14
    3108:	df 90       	pop	r13
    310a:	cf 90       	pop	r12
    310c:	08 95       	ret

0000310e <__spiSWSetMode>:
    310e:	fc 01       	movw	r30, r24
    3110:	80 89       	ldd	r24, Z+16	; 0x10
    3112:	91 89       	ldd	r25, Z+17	; 0x11
    3114:	20 e0       	ldi	r18, 0x00	; 0
    3116:	62 50       	subi	r22, 0x02	; 2
    3118:	62 30       	cpi	r22, 0x02	; 2
    311a:	08 f4       	brcc	.+2      	; 0x311e <__spiSWSetMode+0x10>
    311c:	21 e0       	ldi	r18, 0x01	; 1
    311e:	62 2f       	mov	r22, r18
    3120:	0e 94 3c 12 	call	0x2478	; 0x2478 <pin_make_output>
    3124:	08 95       	ret

00003126 <__spiSWInit>:
    3126:	cf 93       	push	r28
    3128:	df 93       	push	r29
    312a:	ec 01       	movw	r28, r24
    312c:	66 23       	and	r22, r22
    312e:	59 f0       	breq	.+22     	; 0x3146 <__spiSWInit+0x20>
    3130:	8c 85       	ldd	r24, Y+12	; 0x0c
    3132:	9d 85       	ldd	r25, Y+13	; 0x0d
    3134:	6f ef       	ldi	r22, 0xFF	; 255
    3136:	0e 94 3c 12 	call	0x2478	; 0x2478 <pin_make_output>
    313a:	8e 85       	ldd	r24, Y+14	; 0x0e
    313c:	9f 85       	ldd	r25, Y+15	; 0x0f
    313e:	6f ef       	ldi	r22, 0xFF	; 255
    3140:	0e 94 15 12 	call	0x242a	; 0x242a <pin_make_input>
    3144:	0f c0       	rjmp	.+30     	; 0x3164 <__spiSWInit+0x3e>
    3146:	88 89       	ldd	r24, Y+16	; 0x10
    3148:	99 89       	ldd	r25, Y+17	; 0x11
    314a:	60 e0       	ldi	r22, 0x00	; 0
    314c:	0e 94 15 12 	call	0x242a	; 0x242a <pin_make_input>
    3150:	8c 85       	ldd	r24, Y+12	; 0x0c
    3152:	9d 85       	ldd	r25, Y+13	; 0x0d
    3154:	60 e0       	ldi	r22, 0x00	; 0
    3156:	0e 94 15 12 	call	0x242a	; 0x242a <pin_make_input>
    315a:	8e 85       	ldd	r24, Y+14	; 0x0e
    315c:	9f 85       	ldd	r25, Y+15	; 0x0f
    315e:	6f ef       	ldi	r22, 0xFF	; 255
    3160:	0e 94 3c 12 	call	0x2478	; 0x2478 <pin_make_output>
    3164:	28 89       	ldd	r18, Y+16	; 0x10
    3166:	39 89       	ldd	r19, Y+17	; 0x11
    3168:	60 e0       	ldi	r22, 0x00	; 0
    316a:	8f 81       	ldd	r24, Y+7	; 0x07
    316c:	82 50       	subi	r24, 0x02	; 2
    316e:	82 30       	cpi	r24, 0x02	; 2
    3170:	08 f4       	brcc	.+2      	; 0x3174 <__spiSWInit+0x4e>
    3172:	61 e0       	ldi	r22, 0x01	; 1
    3174:	c9 01       	movw	r24, r18
    3176:	0e 94 3c 12 	call	0x2478	; 0x2478 <pin_make_output>
    317a:	df 91       	pop	r29
    317c:	cf 91       	pop	r28
    317e:	08 95       	ret

00003180 <ticks_per_ms>:
    3180:	ef 92       	push	r14
    3182:	ff 92       	push	r15
    3184:	0f 93       	push	r16
    3186:	1f 93       	push	r17
    3188:	7a 01       	movw	r14, r20
    318a:	20 91 66 00 	lds	r18, 0x0066
    318e:	30 91 67 00 	lds	r19, 0x0067
    3192:	40 e0       	ldi	r20, 0x00	; 0
    3194:	50 e0       	ldi	r21, 0x00	; 0
    3196:	0e 94 b6 27 	call	0x4f6c	; 0x4f6c <__mulsi3>
    319a:	00 e0       	ldi	r16, 0x00	; 0
    319c:	10 e0       	ldi	r17, 0x00	; 0
    319e:	a8 01       	movw	r20, r16
    31a0:	97 01       	movw	r18, r14
    31a2:	0e 94 08 28 	call	0x5010	; 0x5010 <__udivmodsi4>
    31a6:	ca 01       	movw	r24, r20
    31a8:	b9 01       	movw	r22, r18
    31aa:	1f 91       	pop	r17
    31ac:	0f 91       	pop	r16
    31ae:	ff 90       	pop	r15
    31b0:	ef 90       	pop	r14
    31b2:	08 95       	ret

000031b4 <delay_cycles>:
    31b4:	61 30       	cpi	r22, 0x01	; 1
    31b6:	23 e0       	ldi	r18, 0x03	; 3
    31b8:	72 07       	cpc	r23, r18
    31ba:	20 e0       	ldi	r18, 0x00	; 0
    31bc:	82 07       	cpc	r24, r18
    31be:	20 e0       	ldi	r18, 0x00	; 0
    31c0:	92 07       	cpc	r25, r18
    31c2:	48 f4       	brcc	.+18     	; 0x31d6 <delay_cycles+0x22>
    31c4:	23 e0       	ldi	r18, 0x03	; 3
    31c6:	30 e0       	ldi	r19, 0x00	; 0
    31c8:	40 e0       	ldi	r20, 0x00	; 0
    31ca:	50 e0       	ldi	r21, 0x00	; 0
    31cc:	0e 94 08 28 	call	0x5010	; 0x5010 <__udivmodsi4>
    31d0:	2a 95       	dec	r18
    31d2:	f1 f7       	brne	.-4      	; 0x31d0 <delay_cycles+0x1c>
    31d4:	08 95       	ret
    31d6:	9b 01       	movw	r18, r22
    31d8:	ac 01       	movw	r20, r24
    31da:	82 e0       	ldi	r24, 0x02	; 2
    31dc:	56 95       	lsr	r21
    31de:	47 95       	ror	r20
    31e0:	37 95       	ror	r19
    31e2:	27 95       	ror	r18
    31e4:	8a 95       	dec	r24
    31e6:	d1 f7       	brne	.-12     	; 0x31dc <delay_cycles+0x28>
    31e8:	da 01       	movw	r26, r20
    31ea:	c9 01       	movw	r24, r18
    31ec:	20 30       	cpi	r18, 0x00	; 0
    31ee:	60 e0       	ldi	r22, 0x00	; 0
    31f0:	36 07       	cpc	r19, r22
    31f2:	61 e0       	ldi	r22, 0x01	; 1
    31f4:	46 07       	cpc	r20, r22
    31f6:	60 e0       	ldi	r22, 0x00	; 0
    31f8:	56 07       	cpc	r21, r22
    31fa:	20 f0       	brcs	.+8      	; 0x3204 <delay_cycles+0x50>
    31fc:	8f ef       	ldi	r24, 0xFF	; 255
    31fe:	9f ef       	ldi	r25, 0xFF	; 255
    3200:	a0 e0       	ldi	r26, 0x00	; 0
    3202:	b0 e0       	ldi	r27, 0x00	; 0
    3204:	fc 01       	movw	r30, r24
    3206:	31 97       	sbiw	r30, 0x01	; 1
    3208:	f1 f7       	brne	.-4      	; 0x3206 <delay_cycles+0x52>
    320a:	a0 e0       	ldi	r26, 0x00	; 0
    320c:	b0 e0       	ldi	r27, 0x00	; 0
    320e:	28 1b       	sub	r18, r24
    3210:	39 0b       	sbc	r19, r25
    3212:	4a 0b       	sbc	r20, r26
    3214:	5b 0b       	sbc	r21, r27
    3216:	41 f7       	brne	.-48     	; 0x31e8 <delay_cycles+0x34>
    3218:	08 95       	ret

0000321a <nullTimerCompareCallback>:
    321a:	08 95       	ret

0000321c <clockCallback>:
    321c:	80 91 1e 01 	lds	r24, 0x011E
    3220:	90 91 1f 01 	lds	r25, 0x011F
    3224:	a0 91 20 01 	lds	r26, 0x0120
    3228:	b0 91 21 01 	lds	r27, 0x0121
    322c:	01 96       	adiw	r24, 0x01	; 1
    322e:	a1 1d       	adc	r26, r1
    3230:	b1 1d       	adc	r27, r1
    3232:	80 93 1e 01 	sts	0x011E, r24
    3236:	90 93 1f 01 	sts	0x011F, r25
    323a:	a0 93 20 01 	sts	0x0120, r26
    323e:	b0 93 21 01 	sts	0x0121, r27
    3242:	08 95       	ret

00003244 <__timerPrescalerIndex>:
    3244:	fc 01       	movw	r30, r24
    3246:	37 96       	adiw	r30, 0x07	; 7
    3248:	e4 91       	lpm	r30, Z+
    324a:	ee 23       	and	r30, r30
    324c:	21 f4       	brne	.+8      	; 0x3256 <__timerPrescalerIndex+0x12>
    324e:	26 e0       	ldi	r18, 0x06	; 6
    3250:	80 e9       	ldi	r24, 0x90	; 144
    3252:	92 e0       	ldi	r25, 0x02	; 2
    3254:	03 c0       	rjmp	.+6      	; 0x325c <__timerPrescalerIndex+0x18>
    3256:	28 e0       	ldi	r18, 0x08	; 8
    3258:	8c e9       	ldi	r24, 0x9C	; 156
    325a:	92 e0       	ldi	r25, 0x02	; 2
    325c:	42 2f       	mov	r20, r18
    325e:	41 50       	subi	r20, 0x01	; 1
    3260:	24 2f       	mov	r18, r20
    3262:	33 27       	eor	r19, r19
    3264:	27 fd       	sbrc	r18, 7
    3266:	30 95       	com	r19
    3268:	22 0f       	add	r18, r18
    326a:	33 1f       	adc	r19, r19
    326c:	28 0f       	add	r18, r24
    326e:	39 1f       	adc	r19, r25
    3270:	0e c0       	rjmp	.+28     	; 0x328e <__timerPrescalerIndex+0x4a>
    3272:	f9 01       	movw	r30, r18
    3274:	85 91       	lpm	r24, Z+
    3276:	94 91       	lpm	r25, Z+
    3278:	22 50       	subi	r18, 0x02	; 2
    327a:	30 40       	sbci	r19, 0x00	; 0
    327c:	86 17       	cp	r24, r22
    327e:	97 07       	cpc	r25, r23
    3280:	29 f4       	brne	.+10     	; 0x328c <__timerPrescalerIndex+0x48>
    3282:	24 2f       	mov	r18, r20
    3284:	33 27       	eor	r19, r19
    3286:	27 fd       	sbrc	r18, 7
    3288:	30 95       	com	r19
    328a:	05 c0       	rjmp	.+10     	; 0x3296 <__timerPrescalerIndex+0x52>
    328c:	41 50       	subi	r20, 0x01	; 1
    328e:	47 ff       	sbrs	r20, 7
    3290:	f0 cf       	rjmp	.-32     	; 0x3272 <__timerPrescalerIndex+0x2e>
    3292:	2f ef       	ldi	r18, 0xFF	; 255
    3294:	3f ef       	ldi	r19, 0xFF	; 255
    3296:	c9 01       	movw	r24, r18
    3298:	08 95       	ret

0000329a <timerGetClosestPrescale>:
    329a:	0f 93       	push	r16
    329c:	1f 93       	push	r17
    329e:	cf 93       	push	r28
    32a0:	df 93       	push	r29
    32a2:	8c 01       	movw	r16, r24
    32a4:	24 e0       	ldi	r18, 0x04	; 4
    32a6:	61 30       	cpi	r22, 0x01	; 1
    32a8:	72 07       	cpc	r23, r18
    32aa:	10 f0       	brcs	.+4      	; 0x32b0 <timerGetClosestPrescale+0x16>
    32ac:	60 e0       	ldi	r22, 0x00	; 0
    32ae:	74 e0       	ldi	r23, 0x04	; 4
    32b0:	eb 01       	movw	r28, r22
    32b2:	61 15       	cp	r22, r1
    32b4:	71 05       	cpc	r23, r1
    32b6:	21 f4       	brne	.+8      	; 0x32c0 <timerGetClosestPrescale+0x26>
    32b8:	c1 e0       	ldi	r28, 0x01	; 1
    32ba:	d0 e0       	ldi	r29, 0x00	; 0
    32bc:	01 c0       	rjmp	.+2      	; 0x32c0 <timerGetClosestPrescale+0x26>
    32be:	21 96       	adiw	r28, 0x01	; 1
    32c0:	c8 01       	movw	r24, r16
    32c2:	be 01       	movw	r22, r28
    32c4:	0e 94 22 19 	call	0x3244	; 0x3244 <__timerPrescalerIndex>
    32c8:	8f 5f       	subi	r24, 0xFF	; 255
    32ca:	9f 4f       	sbci	r25, 0xFF	; 255
    32cc:	c1 f3       	breq	.-16     	; 0x32be <timerGetClosestPrescale+0x24>
    32ce:	ce 01       	movw	r24, r28
    32d0:	df 91       	pop	r29
    32d2:	cf 91       	pop	r28
    32d4:	1f 91       	pop	r17
    32d6:	0f 91       	pop	r16
    32d8:	08 95       	ret

000032da <timerGetCounter>:
    32da:	9c 01       	movw	r18, r24
    32dc:	02 96       	adiw	r24, 0x02	; 2
    32de:	fc 01       	movw	r30, r24
    32e0:	a5 91       	lpm	r26, Z+
    32e2:	b4 91       	lpm	r27, Z+
    32e4:	2a 5f       	subi	r18, 0xFA	; 250
    32e6:	3f 4f       	sbci	r19, 0xFF	; 255
    32e8:	f9 01       	movw	r30, r18
    32ea:	84 91       	lpm	r24, Z+
    32ec:	88 23       	and	r24, r24
    32ee:	19 f0       	breq	.+6      	; 0x32f6 <timerGetCounter+0x1c>
    32f0:	2d 91       	ld	r18, X+
    32f2:	3c 91       	ld	r19, X
    32f4:	03 c0       	rjmp	.+6      	; 0x32fc <timerGetCounter+0x22>
    32f6:	8c 91       	ld	r24, X
    32f8:	28 2f       	mov	r18, r24
    32fa:	30 e0       	ldi	r19, 0x00	; 0
    32fc:	c9 01       	movw	r24, r18
    32fe:	08 95       	ret

00003300 <compareSetOutputMode>:
    3300:	9c 01       	movw	r18, r24
    3302:	0b 96       	adiw	r24, 0x0b	; 11
    3304:	fc 01       	movw	r30, r24
    3306:	a5 91       	lpm	r26, Z+
    3308:	b4 91       	lpm	r27, Z+
    330a:	23 5f       	subi	r18, 0xF3	; 243
    330c:	3f 4f       	sbci	r19, 0xFF	; 255
    330e:	f9 01       	movw	r30, r18
    3310:	24 91       	lpm	r18, Z+
    3312:	70 e0       	ldi	r23, 0x00	; 0
    3314:	02 2e       	mov	r0, r18
    3316:	02 c0       	rjmp	.+4      	; 0x331c <compareSetOutputMode+0x1c>
    3318:	66 0f       	add	r22, r22
    331a:	77 1f       	adc	r23, r23
    331c:	0a 94       	dec	r0
    331e:	e2 f7       	brpl	.-8      	; 0x3318 <compareSetOutputMode+0x18>
    3320:	81 e0       	ldi	r24, 0x01	; 1
    3322:	90 e0       	ldi	r25, 0x00	; 0
    3324:	02 c0       	rjmp	.+4      	; 0x332a <compareSetOutputMode+0x2a>
    3326:	88 0f       	add	r24, r24
    3328:	99 1f       	adc	r25, r25
    332a:	2a 95       	dec	r18
    332c:	e2 f7       	brpl	.-8      	; 0x3326 <compareSetOutputMode+0x26>
    332e:	28 2f       	mov	r18, r24
    3330:	22 0f       	add	r18, r18
    3332:	28 2b       	or	r18, r24
    3334:	9c 91       	ld	r25, X
    3336:	82 2f       	mov	r24, r18
    3338:	86 23       	and	r24, r22
    333a:	20 95       	com	r18
    333c:	29 23       	and	r18, r25
    333e:	82 2b       	or	r24, r18
    3340:	8c 93       	st	X, r24
    3342:	08 95       	ret

00003344 <compareGetOutputMode>:
    3344:	9c 01       	movw	r18, r24
    3346:	0b 96       	adiw	r24, 0x0b	; 11
    3348:	fc 01       	movw	r30, r24
    334a:	a5 91       	lpm	r26, Z+
    334c:	b4 91       	lpm	r27, Z+
    334e:	23 5f       	subi	r18, 0xF3	; 243
    3350:	3f 4f       	sbci	r19, 0xFF	; 255
    3352:	f9 01       	movw	r30, r18
    3354:	44 91       	lpm	r20, Z+
    3356:	21 e0       	ldi	r18, 0x01	; 1
    3358:	30 e0       	ldi	r19, 0x00	; 0
    335a:	04 2e       	mov	r0, r20
    335c:	02 c0       	rjmp	.+4      	; 0x3362 <compareGetOutputMode+0x1e>
    335e:	22 0f       	add	r18, r18
    3360:	33 1f       	adc	r19, r19
    3362:	0a 94       	dec	r0
    3364:	e2 f7       	brpl	.-8      	; 0x335e <compareGetOutputMode+0x1a>
    3366:	82 2f       	mov	r24, r18
    3368:	88 0f       	add	r24, r24
    336a:	82 2b       	or	r24, r18
    336c:	2c 91       	ld	r18, X
    336e:	82 23       	and	r24, r18
    3370:	90 e0       	ldi	r25, 0x00	; 0
    3372:	02 c0       	rjmp	.+4      	; 0x3378 <compareGetOutputMode+0x34>
    3374:	95 95       	asr	r25
    3376:	87 95       	ror	r24
    3378:	4a 95       	dec	r20
    337a:	e2 f7       	brpl	.-8      	; 0x3374 <compareGetOutputMode+0x30>
    337c:	08 95       	ret

0000337e <__timer_overflowService>:
    337e:	fc 01       	movw	r30, r24
    3380:	a5 91       	lpm	r26, Z+
    3382:	b4 91       	lpm	r27, Z+
    3384:	12 96       	adiw	r26, 0x02	; 2
    3386:	ed 91       	ld	r30, X+
    3388:	fc 91       	ld	r31, X
    338a:	13 97       	sbiw	r26, 0x03	; 3
    338c:	30 97       	sbiw	r30, 0x00	; 0
    338e:	29 f0       	breq	.+10     	; 0x339a <__timer_overflowService+0x1c>
    3390:	14 96       	adiw	r26, 0x04	; 4
    3392:	6d 91       	ld	r22, X+
    3394:	7c 91       	ld	r23, X
    3396:	15 97       	sbiw	r26, 0x05	; 5
    3398:	09 95       	icall
    339a:	08 95       	ret

0000339c <__timer_captureService>:
    339c:	fc 01       	movw	r30, r24
    339e:	a5 91       	lpm	r26, Z+
    33a0:	b4 91       	lpm	r27, Z+
    33a2:	16 96       	adiw	r26, 0x06	; 6
    33a4:	ed 91       	ld	r30, X+
    33a6:	fc 91       	ld	r31, X
    33a8:	17 97       	sbiw	r26, 0x07	; 7
    33aa:	30 97       	sbiw	r30, 0x00	; 0
    33ac:	29 f0       	breq	.+10     	; 0x33b8 <__timer_captureService+0x1c>
    33ae:	18 96       	adiw	r26, 0x08	; 8
    33b0:	6d 91       	ld	r22, X+
    33b2:	7c 91       	ld	r23, X
    33b4:	19 97       	sbiw	r26, 0x09	; 9
    33b6:	09 95       	icall
    33b8:	08 95       	ret

000033ba <__timer_compareService>:
    33ba:	fc 01       	movw	r30, r24
    33bc:	a5 91       	lpm	r26, Z+
    33be:	b4 91       	lpm	r27, Z+
    33c0:	ed 91       	ld	r30, X+
    33c2:	fc 91       	ld	r31, X
    33c4:	11 97       	sbiw	r26, 0x01	; 1
    33c6:	30 97       	sbiw	r30, 0x00	; 0
    33c8:	29 f0       	breq	.+10     	; 0x33d4 <__timer_compareService+0x1a>
    33ca:	12 96       	adiw	r26, 0x02	; 2
    33cc:	6d 91       	ld	r22, X+
    33ce:	7c 91       	ld	r23, X
    33d0:	13 97       	sbiw	r26, 0x03	; 3
    33d2:	09 95       	icall
    33d4:	08 95       	ret

000033d6 <getError>:
    33d6:	80 91 ea 03 	lds	r24, 0x03EA
    33da:	08 95       	ret

000033dc <setErrorLog>:
    33dc:	90 93 ee 03 	sts	0x03EE, r25
    33e0:	80 93 ed 03 	sts	0x03ED, r24
    33e4:	08 95       	ret

000033e6 <__error_flash>:
    33e6:	8f 92       	push	r8
    33e8:	9f 92       	push	r9
    33ea:	af 92       	push	r10
    33ec:	bf 92       	push	r11
    33ee:	cf 92       	push	r12
    33f0:	df 92       	push	r13
    33f2:	ef 92       	push	r14
    33f4:	ff 92       	push	r15
    33f6:	0f 93       	push	r16
    33f8:	1f 93       	push	r17
    33fa:	cf 93       	push	r28
    33fc:	df 93       	push	r29
    33fe:	98 2e       	mov	r9, r24
    3400:	89 2e       	mov	r8, r25
    3402:	5a 01       	movw	r10, r20
    3404:	6b 01       	movw	r12, r22
    3406:	c8 2f       	mov	r28, r24
    3408:	d9 2f       	mov	r29, r25
    340a:	89 81       	ldd	r24, Y+1	; 0x01
    340c:	88 23       	and	r24, r24
    340e:	41 f4       	brne	.+16     	; 0x3420 <__error_flash+0x3a>
    3410:	88 81       	ld	r24, Y
    3412:	18 16       	cp	r1, r24
    3414:	14 f4       	brge	.+4      	; 0x341a <__error_flash+0x34>
    3416:	88 81       	ld	r24, Y
    3418:	02 c0       	rjmp	.+4      	; 0x341e <__error_flash+0x38>
    341a:	88 81       	ld	r24, Y
    341c:	81 95       	neg	r24
    341e:	89 83       	std	Y+1, r24	; 0x01
    3420:	88 81       	ld	r24, Y
    3422:	87 fd       	sbrc	r24, 7
    3424:	08 c0       	rjmp	.+16     	; 0x3436 <__error_flash+0x50>
    3426:	e0 e2       	ldi	r30, 0x20	; 32
    3428:	ee 2e       	mov	r14, r30
    342a:	e1 ea       	ldi	r30, 0xA1	; 161
    342c:	fe 2e       	mov	r15, r30
    342e:	e7 e0       	ldi	r30, 0x07	; 7
    3430:	0e 2f       	mov	r16, r30
    3432:	11 2d       	mov	r17, r1
    3434:	07 c0       	rjmp	.+14     	; 0x3444 <__error_flash+0x5e>
    3436:	70 e9       	ldi	r23, 0x90	; 144
    3438:	e7 2e       	mov	r14, r23
    343a:	70 ed       	ldi	r23, 0xD0	; 208
    343c:	f7 2e       	mov	r15, r23
    343e:	73 e0       	ldi	r23, 0x03	; 3
    3440:	07 2f       	mov	r16, r23
    3442:	11 2d       	mov	r17, r1
    3444:	8a 81       	ldd	r24, Y+2	; 0x02
    3446:	80 ff       	sbrs	r24, 0
    3448:	1d c0       	rjmp	.+58     	; 0x3484 <__error_flash+0x9e>
    344a:	80 91 17 01 	lds	r24, 0x0117
    344e:	90 91 18 01 	lds	r25, 0x0118
    3452:	0e 94 63 12 	call	0x24c6	; 0x24c6 <pin_is_output>
    3456:	88 23       	and	r24, r24
    3458:	29 f0       	breq	.+10     	; 0x3464 <__error_flash+0x7e>
    345a:	87 e1       	ldi	r24, 0x17	; 23
    345c:	91 e0       	ldi	r25, 0x01	; 1
    345e:	60 e0       	ldi	r22, 0x00	; 0
    3460:	0e 94 ed 12 	call	0x25da	; 0x25da <LED_set>
    3464:	89 81       	ldd	r24, Y+1	; 0x01
    3466:	81 50       	subi	r24, 0x01	; 1
    3468:	89 83       	std	Y+1, r24	; 0x01
    346a:	89 81       	ldd	r24, Y+1	; 0x01
    346c:	88 23       	and	r24, r24
    346e:	39 f4       	brne	.+14     	; 0x347e <__error_flash+0x98>
    3470:	60 e8       	ldi	r22, 0x80	; 128
    3472:	e6 2e       	mov	r14, r22
    3474:	64 e8       	ldi	r22, 0x84	; 132
    3476:	f6 2e       	mov	r15, r22
    3478:	6e e1       	ldi	r22, 0x1E	; 30
    347a:	06 2f       	mov	r16, r22
    347c:	11 2d       	mov	r17, r1
    347e:	8a 81       	ldd	r24, Y+2	; 0x02
    3480:	8e 7f       	andi	r24, 0xFE	; 254
    3482:	0f c0       	rjmp	.+30     	; 0x34a2 <__error_flash+0xbc>
    3484:	80 91 17 01 	lds	r24, 0x0117
    3488:	90 91 18 01 	lds	r25, 0x0118
    348c:	0e 94 63 12 	call	0x24c6	; 0x24c6 <pin_is_output>
    3490:	88 23       	and	r24, r24
    3492:	29 f0       	breq	.+10     	; 0x349e <__error_flash+0xb8>
    3494:	87 e1       	ldi	r24, 0x17	; 23
    3496:	91 e0       	ldi	r25, 0x01	; 1
    3498:	6f ef       	ldi	r22, 0xFF	; 255
    349a:	0e 94 ed 12 	call	0x25da	; 0x25da <LED_set>
    349e:	8a 81       	ldd	r24, Y+2	; 0x02
    34a0:	81 60       	ori	r24, 0x01	; 1
    34a2:	8a 83       	std	Y+2, r24	; 0x02
    34a4:	83 ef       	ldi	r24, 0xF3	; 243
    34a6:	99 e1       	ldi	r25, 0x19	; 25
    34a8:	69 2d       	mov	r22, r9
    34aa:	78 2d       	mov	r23, r8
    34ac:	a6 01       	movw	r20, r12
    34ae:	95 01       	movw	r18, r10
    34b0:	0e 94 0f 27 	call	0x4e1e	; 0x4e1e <scheduleJob>
    34b4:	df 91       	pop	r29
    34b6:	cf 91       	pop	r28
    34b8:	1f 91       	pop	r17
    34ba:	0f 91       	pop	r16
    34bc:	ff 90       	pop	r15
    34be:	ef 90       	pop	r14
    34c0:	df 90       	pop	r13
    34c2:	cf 90       	pop	r12
    34c4:	bf 90       	pop	r11
    34c6:	af 90       	pop	r10
    34c8:	9f 90       	pop	r9
    34ca:	8f 90       	pop	r8
    34cc:	08 95       	ret

000034ce <__timerRead>:
    34ce:	df 92       	push	r13
    34d0:	ef 92       	push	r14
    34d2:	ff 92       	push	r15
    34d4:	0f 93       	push	r16
    34d6:	1f 93       	push	r17
    34d8:	cf 93       	push	r28
    34da:	df 93       	push	r29
    34dc:	9c 01       	movw	r18, r24
    34de:	eb 01       	movw	r28, r22
    34e0:	fc 01       	movw	r30, r24
    34e2:	a5 91       	lpm	r26, Z+
    34e4:	b4 91       	lpm	r27, Z+
    34e6:	1a 96       	adiw	r26, 0x0a	; 10
    34e8:	8c 91       	ld	r24, X
    34ea:	39 83       	std	Y+1, r19	; 0x01
    34ec:	28 83       	st	Y, r18
    34ee:	21 15       	cp	r18, r1
    34f0:	31 05       	cpc	r19, r1
    34f2:	39 f4       	brne	.+14     	; 0x3502 <__timerRead+0x34>
    34f4:	1a 82       	std	Y+2, r1	; 0x02
    34f6:	1b 82       	std	Y+3, r1	; 0x03
    34f8:	1c 82       	std	Y+4, r1	; 0x04
    34fa:	1d 82       	std	Y+5, r1	; 0x05
    34fc:	1f 82       	std	Y+7, r1	; 0x07
    34fe:	1e 82       	std	Y+6, r1	; 0x06
    3500:	b1 c0       	rjmp	.+354    	; 0x3664 <__timerRead+0x196>
    3502:	84 30       	cpi	r24, 0x04	; 4
    3504:	39 f0       	breq	.+14     	; 0x3514 <__timerRead+0x46>
    3506:	89 30       	cpi	r24, 0x09	; 9
    3508:	29 f0       	breq	.+10     	; 0x3514 <__timerRead+0x46>
    350a:	8b 30       	cpi	r24, 0x0B	; 11
    350c:	19 f0       	breq	.+6      	; 0x3514 <__timerRead+0x46>
    350e:	8f 30       	cpi	r24, 0x0F	; 15
    3510:	09 f0       	breq	.+2      	; 0x3514 <__timerRead+0x46>
    3512:	48 c0       	rjmp	.+144    	; 0x35a4 <__timerRead+0xd6>
    3514:	f9 01       	movw	r30, r18
    3516:	77 96       	adiw	r30, 0x17	; 23
    3518:	65 91       	lpm	r22, Z+
    351a:	74 91       	lpm	r23, Z+
    351c:	df b6       	in	r13, 0x3f	; 63
    351e:	f8 94       	cli
    3520:	a2 e0       	ldi	r26, 0x02	; 2
    3522:	ea 2e       	mov	r14, r26
    3524:	f1 2c       	mov	r15, r1
    3526:	e2 0e       	add	r14, r18
    3528:	f3 1e       	adc	r15, r19
    352a:	f7 01       	movw	r30, r14
    352c:	a5 91       	lpm	r26, Z+
    352e:	b4 91       	lpm	r27, Z+
    3530:	89 01       	movw	r16, r18
    3532:	0a 5f       	subi	r16, 0xFA	; 250
    3534:	1f 4f       	sbci	r17, 0xFF	; 255
    3536:	f8 01       	movw	r30, r16
    3538:	84 91       	lpm	r24, Z+
    353a:	88 23       	and	r24, r24
    353c:	19 f0       	breq	.+6      	; 0x3544 <__timerRead+0x76>
    353e:	4d 91       	ld	r20, X+
    3540:	5c 91       	ld	r21, X
    3542:	03 c0       	rjmp	.+6      	; 0x354a <__timerRead+0x7c>
    3544:	8c 91       	ld	r24, X
    3546:	48 2f       	mov	r20, r24
    3548:	50 e0       	ldi	r21, 0x00	; 0
    354a:	80 91 ef 03 	lds	r24, 0x03EF
    354e:	90 91 f0 03 	lds	r25, 0x03F0
    3552:	28 17       	cp	r18, r24
    3554:	39 07       	cpc	r19, r25
    3556:	29 f0       	breq	.+10     	; 0x3562 <__timerRead+0x94>
    3558:	80 e0       	ldi	r24, 0x00	; 0
    355a:	90 e0       	ldi	r25, 0x00	; 0
    355c:	a0 e0       	ldi	r26, 0x00	; 0
    355e:	b0 e0       	ldi	r27, 0x00	; 0
    3560:	08 c0       	rjmp	.+16     	; 0x3572 <__timerRead+0xa4>
    3562:	80 91 1e 01 	lds	r24, 0x011E
    3566:	90 91 1f 01 	lds	r25, 0x011F
    356a:	a0 91 20 01 	lds	r26, 0x0120
    356e:	b0 91 21 01 	lds	r27, 0x0121
    3572:	8a 83       	std	Y+2, r24	; 0x02
    3574:	9b 83       	std	Y+3, r25	; 0x03
    3576:	ac 83       	std	Y+4, r26	; 0x04
    3578:	bd 83       	std	Y+5, r27	; 0x05
    357a:	f7 01       	movw	r30, r14
    357c:	a5 91       	lpm	r26, Z+
    357e:	b4 91       	lpm	r27, Z+
    3580:	f8 01       	movw	r30, r16
    3582:	84 91       	lpm	r24, Z+
    3584:	88 23       	and	r24, r24
    3586:	19 f0       	breq	.+6      	; 0x358e <__timerRead+0xc0>
    3588:	8d 91       	ld	r24, X+
    358a:	9c 91       	ld	r25, X
    358c:	02 c0       	rjmp	.+4      	; 0x3592 <__timerRead+0xc4>
    358e:	8c 91       	ld	r24, X
    3590:	90 e0       	ldi	r25, 0x00	; 0
    3592:	9f 83       	std	Y+7, r25	; 0x07
    3594:	8e 83       	std	Y+6, r24	; 0x06
    3596:	84 17       	cp	r24, r20
    3598:	95 07       	cpc	r25, r21
    359a:	08 f4       	brcc	.+2      	; 0x359e <__timerRead+0xd0>
    359c:	49 c0       	rjmp	.+146    	; 0x3630 <__timerRead+0x162>
    359e:	cb 01       	movw	r24, r22
    35a0:	08 96       	adiw	r24, 0x08	; 8
    35a2:	42 c0       	rjmp	.+132    	; 0x3628 <__timerRead+0x15a>
    35a4:	df b6       	in	r13, 0x3f	; 63
    35a6:	f8 94       	cli
    35a8:	f2 e0       	ldi	r31, 0x02	; 2
    35aa:	ef 2e       	mov	r14, r31
    35ac:	f1 2c       	mov	r15, r1
    35ae:	e2 0e       	add	r14, r18
    35b0:	f3 1e       	adc	r15, r19
    35b2:	f7 01       	movw	r30, r14
    35b4:	a5 91       	lpm	r26, Z+
    35b6:	b4 91       	lpm	r27, Z+
    35b8:	89 01       	movw	r16, r18
    35ba:	0a 5f       	subi	r16, 0xFA	; 250
    35bc:	1f 4f       	sbci	r17, 0xFF	; 255
    35be:	f8 01       	movw	r30, r16
    35c0:	84 91       	lpm	r24, Z+
    35c2:	88 23       	and	r24, r24
    35c4:	19 f0       	breq	.+6      	; 0x35cc <__timerRead+0xfe>
    35c6:	4d 91       	ld	r20, X+
    35c8:	5c 91       	ld	r21, X
    35ca:	03 c0       	rjmp	.+6      	; 0x35d2 <__timerRead+0x104>
    35cc:	8c 91       	ld	r24, X
    35ce:	48 2f       	mov	r20, r24
    35d0:	50 e0       	ldi	r21, 0x00	; 0
    35d2:	80 91 ef 03 	lds	r24, 0x03EF
    35d6:	90 91 f0 03 	lds	r25, 0x03F0
    35da:	28 17       	cp	r18, r24
    35dc:	39 07       	cpc	r19, r25
    35de:	29 f0       	breq	.+10     	; 0x35ea <__timerRead+0x11c>
    35e0:	80 e0       	ldi	r24, 0x00	; 0
    35e2:	90 e0       	ldi	r25, 0x00	; 0
    35e4:	a0 e0       	ldi	r26, 0x00	; 0
    35e6:	b0 e0       	ldi	r27, 0x00	; 0
    35e8:	08 c0       	rjmp	.+16     	; 0x35fa <__timerRead+0x12c>
    35ea:	80 91 1e 01 	lds	r24, 0x011E
    35ee:	90 91 1f 01 	lds	r25, 0x011F
    35f2:	a0 91 20 01 	lds	r26, 0x0120
    35f6:	b0 91 21 01 	lds	r27, 0x0121
    35fa:	8a 83       	std	Y+2, r24	; 0x02
    35fc:	9b 83       	std	Y+3, r25	; 0x03
    35fe:	ac 83       	std	Y+4, r26	; 0x04
    3600:	bd 83       	std	Y+5, r27	; 0x05
    3602:	f7 01       	movw	r30, r14
    3604:	a5 91       	lpm	r26, Z+
    3606:	b4 91       	lpm	r27, Z+
    3608:	f8 01       	movw	r30, r16
    360a:	84 91       	lpm	r24, Z+
    360c:	88 23       	and	r24, r24
    360e:	19 f0       	breq	.+6      	; 0x3616 <__timerRead+0x148>
    3610:	8d 91       	ld	r24, X+
    3612:	9c 91       	ld	r25, X
    3614:	02 c0       	rjmp	.+4      	; 0x361a <__timerRead+0x14c>
    3616:	8c 91       	ld	r24, X
    3618:	90 e0       	ldi	r25, 0x00	; 0
    361a:	9f 83       	std	Y+7, r25	; 0x07
    361c:	8e 83       	std	Y+6, r24	; 0x06
    361e:	84 17       	cp	r24, r20
    3620:	95 07       	cpc	r25, r21
    3622:	30 f0       	brcs	.+12     	; 0x3630 <__timerRead+0x162>
    3624:	c9 01       	movw	r24, r18
    3626:	4c 96       	adiw	r24, 0x1c	; 28
    3628:	0e 94 5e 11 	call	0x22bc	; 0x22bc <__portMaskGet>
    362c:	88 23       	and	r24, r24
    362e:	c9 f0       	breq	.+50     	; 0x3662 <__timerRead+0x194>
    3630:	8a 81       	ldd	r24, Y+2	; 0x02
    3632:	9b 81       	ldd	r25, Y+3	; 0x03
    3634:	ac 81       	ldd	r26, Y+4	; 0x04
    3636:	bd 81       	ldd	r27, Y+5	; 0x05
    3638:	01 96       	adiw	r24, 0x01	; 1
    363a:	a1 1d       	adc	r26, r1
    363c:	b1 1d       	adc	r27, r1
    363e:	8a 83       	std	Y+2, r24	; 0x02
    3640:	9b 83       	std	Y+3, r25	; 0x03
    3642:	ac 83       	std	Y+4, r26	; 0x04
    3644:	bd 83       	std	Y+5, r27	; 0x05
    3646:	f7 01       	movw	r30, r14
    3648:	a5 91       	lpm	r26, Z+
    364a:	b4 91       	lpm	r27, Z+
    364c:	f8 01       	movw	r30, r16
    364e:	84 91       	lpm	r24, Z+
    3650:	88 23       	and	r24, r24
    3652:	19 f0       	breq	.+6      	; 0x365a <__timerRead+0x18c>
    3654:	8d 91       	ld	r24, X+
    3656:	9c 91       	ld	r25, X
    3658:	02 c0       	rjmp	.+4      	; 0x365e <__timerRead+0x190>
    365a:	8c 91       	ld	r24, X
    365c:	90 e0       	ldi	r25, 0x00	; 0
    365e:	9f 83       	std	Y+7, r25	; 0x07
    3660:	8e 83       	std	Y+6, r24	; 0x06
    3662:	df be       	out	0x3f, r13	; 63
    3664:	df 91       	pop	r29
    3666:	cf 91       	pop	r28
    3668:	1f 91       	pop	r17
    366a:	0f 91       	pop	r16
    366c:	ff 90       	pop	r15
    366e:	ef 90       	pop	r14
    3670:	df 90       	pop	r13
    3672:	08 95       	ret

00003674 <clockGetSnapshot>:
    3674:	bc 01       	movw	r22, r24
    3676:	80 91 ef 03 	lds	r24, 0x03EF
    367a:	90 91 f0 03 	lds	r25, 0x03F0
    367e:	0e 94 67 1a 	call	0x34ce	; 0x34ce <__timerRead>
    3682:	08 95       	ret

00003684 <timerGetTicks>:
    3684:	0f 93       	push	r16
    3686:	1f 93       	push	r17
    3688:	df 93       	push	r29
    368a:	cf 93       	push	r28
    368c:	cd b7       	in	r28, 0x3d	; 61
    368e:	de b7       	in	r29, 0x3e	; 62
    3690:	28 97       	sbiw	r28, 0x08	; 8
    3692:	0f b6       	in	r0, 0x3f	; 63
    3694:	f8 94       	cli
    3696:	de bf       	out	0x3e, r29	; 62
    3698:	0f be       	out	0x3f, r0	; 63
    369a:	cd bf       	out	0x3d, r28	; 61
    369c:	8e 01       	movw	r16, r28
    369e:	0f 5f       	subi	r16, 0xFF	; 255
    36a0:	1f 4f       	sbci	r17, 0xFF	; 255
    36a2:	b8 01       	movw	r22, r16
    36a4:	0e 94 67 1a 	call	0x34ce	; 0x34ce <__timerRead>
    36a8:	c8 01       	movw	r24, r16
    36aa:	0e 94 b6 1c 	call	0x396c	; 0x396c <timerSnapshotToTicks>
    36ae:	28 96       	adiw	r28, 0x08	; 8
    36b0:	0f b6       	in	r0, 0x3f	; 63
    36b2:	f8 94       	cli
    36b4:	de bf       	out	0x3e, r29	; 62
    36b6:	0f be       	out	0x3f, r0	; 63
    36b8:	cd bf       	out	0x3d, r28	; 61
    36ba:	cf 91       	pop	r28
    36bc:	df 91       	pop	r29
    36be:	1f 91       	pop	r17
    36c0:	0f 91       	pop	r16
    36c2:	08 95       	ret

000036c4 <clockGetus>:
    36c4:	80 91 ef 03 	lds	r24, 0x03EF
    36c8:	90 91 f0 03 	lds	r25, 0x03F0
    36cc:	0e 94 42 1b 	call	0x3684	; 0x3684 <timerGetTicks>
    36d0:	08 95       	ret

000036d2 <setError>:
    36d2:	df 92       	push	r13
    36d4:	ef 92       	push	r14
    36d6:	ff 92       	push	r15
    36d8:	0f 93       	push	r16
    36da:	1f 93       	push	r17
    36dc:	d8 2e       	mov	r13, r24
    36de:	80 91 ea 03 	lds	r24, 0x03EA
    36e2:	88 23       	and	r24, r24
    36e4:	09 f0       	breq	.+2      	; 0x36e8 <setError+0x16>
    36e6:	5b c0       	rjmp	.+182    	; 0x379e <setError+0xcc>
    36e8:	d0 92 ea 03 	sts	0x03EA, r13
    36ec:	80 91 17 01 	lds	r24, 0x0117
    36f0:	90 91 18 01 	lds	r25, 0x0118
    36f4:	89 2b       	or	r24, r25
    36f6:	99 f0       	breq	.+38     	; 0x371e <setError+0x4c>
    36f8:	80 91 ef 03 	lds	r24, 0x03EF
    36fc:	90 91 f0 03 	lds	r25, 0x03F0
    3700:	89 2b       	or	r24, r25
    3702:	69 f0       	breq	.+26     	; 0x371e <setError+0x4c>
    3704:	0e 94 62 1b 	call	0x36c4	; 0x36c4 <clockGetus>
    3708:	9b 01       	movw	r18, r22
    370a:	ac 01       	movw	r20, r24
    370c:	83 ef       	ldi	r24, 0xF3	; 243
    370e:	99 e1       	ldi	r25, 0x19	; 25
    3710:	6a ee       	ldi	r22, 0xEA	; 234
    3712:	73 e0       	ldi	r23, 0x03	; 3
    3714:	ee 24       	eor	r14, r14
    3716:	ff 24       	eor	r15, r15
    3718:	87 01       	movw	r16, r14
    371a:	0e 94 0f 27 	call	0x4e1e	; 0x4e1e <scheduleJob>
    371e:	80 91 ed 03 	lds	r24, 0x03ED
    3722:	90 91 ee 03 	lds	r25, 0x03EE
    3726:	00 97       	sbiw	r24, 0x00	; 0
    3728:	d1 f1       	breq	.+116    	; 0x379e <setError+0xcc>
    372a:	0e 94 98 14 	call	0x2930	; 0x2930 <rprintfInit>
    372e:	8c 01       	movw	r16, r24
    3730:	2d 2d       	mov	r18, r13
    3732:	33 27       	eor	r19, r19
    3734:	27 fd       	sbrc	r18, 7
    3736:	30 95       	com	r19
    3738:	d7 fe       	sbrs	r13, 7
    373a:	16 c0       	rjmp	.+44     	; 0x3768 <setError+0x96>
    373c:	00 d0       	rcall	.+0      	; 0x373e <setError+0x6c>
    373e:	00 d0       	rcall	.+0      	; 0x3740 <setError+0x6e>
    3740:	0f 92       	push	r0
    3742:	ed b7       	in	r30, 0x3d	; 61
    3744:	fe b7       	in	r31, 0x3e	; 62
    3746:	31 96       	adiw	r30, 0x01	; 1
    3748:	81 e0       	ldi	r24, 0x01	; 1
    374a:	ad b7       	in	r26, 0x3d	; 61
    374c:	be b7       	in	r27, 0x3e	; 62
    374e:	11 96       	adiw	r26, 0x01	; 1
    3750:	8c 93       	st	X, r24
    3752:	81 ed       	ldi	r24, 0xD1	; 209
    3754:	92 e0       	ldi	r25, 0x02	; 2
    3756:	92 83       	std	Z+2, r25	; 0x02
    3758:	81 83       	std	Z+1, r24	; 0x01
    375a:	88 27       	eor	r24, r24
    375c:	99 27       	eor	r25, r25
    375e:	82 1b       	sub	r24, r18
    3760:	93 0b       	sbc	r25, r19
    3762:	94 83       	std	Z+4, r25	; 0x04
    3764:	83 83       	std	Z+3, r24	; 0x03
    3766:	11 c0       	rjmp	.+34     	; 0x378a <setError+0xb8>
    3768:	00 d0       	rcall	.+0      	; 0x376a <setError+0x98>
    376a:	00 d0       	rcall	.+0      	; 0x376c <setError+0x9a>
    376c:	0f 92       	push	r0
    376e:	ed b7       	in	r30, 0x3d	; 61
    3770:	fe b7       	in	r31, 0x3e	; 62
    3772:	31 96       	adiw	r30, 0x01	; 1
    3774:	81 e0       	ldi	r24, 0x01	; 1
    3776:	ad b7       	in	r26, 0x3d	; 61
    3778:	be b7       	in	r27, 0x3e	; 62
    377a:	11 96       	adiw	r26, 0x01	; 1
    377c:	8c 93       	st	X, r24
    377e:	82 ec       	ldi	r24, 0xC2	; 194
    3780:	92 e0       	ldi	r25, 0x02	; 2
    3782:	92 83       	std	Z+2, r25	; 0x02
    3784:	81 83       	std	Z+1, r24	; 0x01
    3786:	34 83       	std	Z+4, r19	; 0x04
    3788:	23 83       	std	Z+3, r18	; 0x03
    378a:	0e 94 ab 15 	call	0x2b56	; 0x2b56 <rprintf1RamRom>
    378e:	0f 90       	pop	r0
    3790:	0f 90       	pop	r0
    3792:	0f 90       	pop	r0
    3794:	0f 90       	pop	r0
    3796:	0f 90       	pop	r0
    3798:	c8 01       	movw	r24, r16
    379a:	0e 94 98 14 	call	0x2930	; 0x2930 <rprintfInit>
    379e:	1f 91       	pop	r17
    37a0:	0f 91       	pop	r16
    37a2:	ff 90       	pop	r15
    37a4:	ef 90       	pop	r14
    37a6:	df 90       	pop	r13
    37a8:	08 95       	ret

000037aa <compareDetach>:
    37aa:	cf 93       	push	r28
    37ac:	df 93       	push	r29
    37ae:	ec 01       	movw	r28, r24
    37b0:	22 96       	adiw	r28, 0x02	; 2
    37b2:	fe 01       	movw	r30, r28
    37b4:	94 91       	lpm	r25, Z+
    37b6:	22 97       	sbiw	r28, 0x02	; 2
    37b8:	8c e2       	ldi	r24, 0x2C	; 44
    37ba:	98 9f       	mul	r25, r24
    37bc:	f0 01       	movw	r30, r0
    37be:	11 24       	eor	r1, r1
    37c0:	ea 5e       	subi	r30, 0xEA	; 234
    37c2:	fe 4f       	sbci	r31, 0xFE	; 254
    37c4:	e4 91       	lpm	r30, Z+
    37c6:	ee 23       	and	r30, r30
    37c8:	71 f0       	breq	.+28     	; 0x37e6 <compareDetach+0x3c>
    37ca:	ce 01       	movw	r24, r28
    37cc:	03 96       	adiw	r24, 0x03	; 3
    37ce:	0e 94 6b 11 	call	0x22d6	; 0x22d6 <__portMaskClear>
    37d2:	ce 01       	movw	r24, r28
    37d4:	60 e0       	ldi	r22, 0x00	; 0
    37d6:	0e 94 80 19 	call	0x3300	; 0x3300 <compareSetOutputMode>
    37da:	fe 01       	movw	r30, r28
    37dc:	a5 91       	lpm	r26, Z+
    37de:	b4 91       	lpm	r27, Z+
    37e0:	1d 92       	st	X+, r1
    37e2:	1c 92       	st	X, r1
    37e4:	03 c0       	rjmp	.+6      	; 0x37ec <compareDetach+0x42>
    37e6:	8d ef       	ldi	r24, 0xFD	; 253
    37e8:	0e 94 69 1b 	call	0x36d2	; 0x36d2 <setError>
    37ec:	df 91       	pop	r29
    37ee:	cf 91       	pop	r28
    37f0:	08 95       	ret

000037f2 <compareSetThreshold>:
    37f2:	cf 93       	push	r28
    37f4:	df 93       	push	r29
    37f6:	9c 01       	movw	r18, r24
    37f8:	2e 5f       	subi	r18, 0xFE	; 254
    37fa:	3f 4f       	sbci	r19, 0xFF	; 255
    37fc:	f9 01       	movw	r30, r18
    37fe:	84 91       	lpm	r24, Z+
    3800:	22 50       	subi	r18, 0x02	; 2
    3802:	30 40       	sbci	r19, 0x00	; 0
    3804:	9c e2       	ldi	r25, 0x2C	; 44
    3806:	89 9f       	mul	r24, r25
    3808:	a0 01       	movw	r20, r0
    380a:	11 24       	eor	r1, r1
    380c:	42 5f       	subi	r20, 0xF2	; 242
    380e:	5e 4f       	sbci	r21, 0xFE	; 254
    3810:	48 5f       	subi	r20, 0xF8	; 248
    3812:	5f 4f       	sbci	r21, 0xFF	; 255
    3814:	fa 01       	movw	r30, r20
    3816:	84 91       	lpm	r24, Z+
    3818:	48 50       	subi	r20, 0x08	; 8
    381a:	50 40       	sbci	r21, 0x00	; 0
    381c:	88 23       	and	r24, r24
    381e:	c1 f0       	breq	.+48     	; 0x3850 <compareSetThreshold+0x5e>
    3820:	c9 01       	movw	r24, r18
    3822:	06 96       	adiw	r24, 0x06	; 6
    3824:	fc 01       	movw	r30, r24
    3826:	c5 91       	lpm	r28, Z+
    3828:	d4 91       	lpm	r29, Z+
    382a:	fa 01       	movw	r30, r20
    382c:	36 96       	adiw	r30, 0x06	; 6
    382e:	e4 91       	lpm	r30, Z+
    3830:	ee 23       	and	r30, r30
    3832:	19 f0       	breq	.+6      	; 0x383a <compareSetThreshold+0x48>
    3834:	79 83       	std	Y+1, r23	; 0x01
    3836:	68 83       	st	Y, r22
    3838:	0e c0       	rjmp	.+28     	; 0x3856 <compareSetThreshold+0x64>
    383a:	6f 3f       	cpi	r22, 0xFF	; 255
    383c:	71 05       	cpc	r23, r1
    383e:	31 f0       	breq	.+12     	; 0x384c <compareSetThreshold+0x5a>
    3840:	28 f0       	brcs	.+10     	; 0x384c <compareSetThreshold+0x5a>
    3842:	8e ef       	ldi	r24, 0xFE	; 254
    3844:	0e 94 69 1b 	call	0x36d2	; 0x36d2 <setError>
    3848:	6f ef       	ldi	r22, 0xFF	; 255
    384a:	70 e0       	ldi	r23, 0x00	; 0
    384c:	68 83       	st	Y, r22
    384e:	03 c0       	rjmp	.+6      	; 0x3856 <compareSetThreshold+0x64>
    3850:	8d ef       	ldi	r24, 0xFD	; 253
    3852:	0e 94 69 1b 	call	0x36d2	; 0x36d2 <setError>
    3856:	df 91       	pop	r29
    3858:	cf 91       	pop	r28
    385a:	08 95       	ret

0000385c <compareGetThreshold>:
    385c:	9c 01       	movw	r18, r24
    385e:	2e 5f       	subi	r18, 0xFE	; 254
    3860:	3f 4f       	sbci	r19, 0xFF	; 255
    3862:	f9 01       	movw	r30, r18
    3864:	84 91       	lpm	r24, Z+
    3866:	22 50       	subi	r18, 0x02	; 2
    3868:	30 40       	sbci	r19, 0x00	; 0
    386a:	9c e2       	ldi	r25, 0x2C	; 44
    386c:	89 9f       	mul	r24, r25
    386e:	a0 01       	movw	r20, r0
    3870:	11 24       	eor	r1, r1
    3872:	42 5f       	subi	r20, 0xF2	; 242
    3874:	5e 4f       	sbci	r21, 0xFE	; 254
    3876:	48 5f       	subi	r20, 0xF8	; 248
    3878:	5f 4f       	sbci	r21, 0xFF	; 255
    387a:	fa 01       	movw	r30, r20
    387c:	84 91       	lpm	r24, Z+
    387e:	48 50       	subi	r20, 0x08	; 8
    3880:	50 40       	sbci	r21, 0x00	; 0
    3882:	88 23       	and	r24, r24
    3884:	89 f0       	breq	.+34     	; 0x38a8 <compareGetThreshold+0x4c>
    3886:	c9 01       	movw	r24, r18
    3888:	06 96       	adiw	r24, 0x06	; 6
    388a:	fc 01       	movw	r30, r24
    388c:	a5 91       	lpm	r26, Z+
    388e:	b4 91       	lpm	r27, Z+
    3890:	fa 01       	movw	r30, r20
    3892:	36 96       	adiw	r30, 0x06	; 6
    3894:	e4 91       	lpm	r30, Z+
    3896:	ee 23       	and	r30, r30
    3898:	19 f0       	breq	.+6      	; 0x38a0 <compareGetThreshold+0x44>
    389a:	2d 91       	ld	r18, X+
    389c:	3c 91       	ld	r19, X
    389e:	09 c0       	rjmp	.+18     	; 0x38b2 <compareGetThreshold+0x56>
    38a0:	8c 91       	ld	r24, X
    38a2:	28 2f       	mov	r18, r24
    38a4:	30 e0       	ldi	r19, 0x00	; 0
    38a6:	05 c0       	rjmp	.+10     	; 0x38b2 <compareGetThreshold+0x56>
    38a8:	8d ef       	ldi	r24, 0xFD	; 253
    38aa:	0e 94 69 1b 	call	0x36d2	; 0x36d2 <setError>
    38ae:	2f ef       	ldi	r18, 0xFF	; 255
    38b0:	30 e0       	ldi	r19, 0x00	; 0
    38b2:	c9 01       	movw	r24, r18
    38b4:	08 95       	ret

000038b6 <timerGetTOP>:
    38b6:	cf 93       	push	r28
    38b8:	df 93       	push	r29
    38ba:	ec 01       	movw	r28, r24
    38bc:	04 96       	adiw	r24, 0x04	; 4
    38be:	fc 01       	movw	r30, r24
    38c0:	a5 91       	lpm	r26, Z+
    38c2:	b4 91       	lpm	r27, Z+
    38c4:	8c 91       	ld	r24, X
    38c6:	90 e0       	ldi	r25, 0x00	; 0
    38c8:	87 70       	andi	r24, 0x07	; 7
    38ca:	90 70       	andi	r25, 0x00	; 0
    38cc:	89 2b       	or	r24, r25
    38ce:	09 f4       	brne	.+2      	; 0x38d2 <timerGetTOP+0x1c>
    38d0:	41 c0       	rjmp	.+130    	; 0x3954 <timerGetTOP+0x9e>
    38d2:	fe 01       	movw	r30, r28
    38d4:	a5 91       	lpm	r26, Z+
    38d6:	b4 91       	lpm	r27, Z+
    38d8:	1a 96       	adiw	r26, 0x0a	; 10
    38da:	8c 91       	ld	r24, X
    38dc:	87 30       	cpi	r24, 0x07	; 7
    38de:	39 f1       	breq	.+78     	; 0x392e <timerGetTOP+0x78>
    38e0:	88 30       	cpi	r24, 0x08	; 8
    38e2:	70 f4       	brcc	.+28     	; 0x3900 <timerGetTOP+0x4a>
    38e4:	83 30       	cpi	r24, 0x03	; 3
    38e6:	19 f1       	breq	.+70     	; 0x392e <timerGetTOP+0x78>
    38e8:	84 30       	cpi	r24, 0x04	; 4
    38ea:	28 f4       	brcc	.+10     	; 0x38f6 <timerGetTOP+0x40>
    38ec:	81 30       	cpi	r24, 0x01	; 1
    38ee:	c9 f0       	breq	.+50     	; 0x3922 <timerGetTOP+0x6c>
    38f0:	82 30       	cpi	r24, 0x02	; 2
    38f2:	d0 f4       	brcc	.+52     	; 0x3928 <timerGetTOP+0x72>
    38f4:	13 c0       	rjmp	.+38     	; 0x391c <timerGetTOP+0x66>
    38f6:	85 30       	cpi	r24, 0x05	; 5
    38f8:	a1 f0       	breq	.+40     	; 0x3922 <timerGetTOP+0x6c>
    38fa:	86 30       	cpi	r24, 0x06	; 6
    38fc:	a8 f4       	brcc	.+42     	; 0x3928 <timerGetTOP+0x72>
    38fe:	1a c0       	rjmp	.+52     	; 0x3934 <timerGetTOP+0x7e>
    3900:	8b 30       	cpi	r24, 0x0B	; 11
    3902:	c1 f0       	breq	.+48     	; 0x3934 <timerGetTOP+0x7e>
    3904:	8c 30       	cpi	r24, 0x0C	; 12
    3906:	18 f4       	brcc	.+6      	; 0x390e <timerGetTOP+0x58>
    3908:	89 30       	cpi	r24, 0x09	; 9
    390a:	e1 f4       	brne	.+56     	; 0x3944 <timerGetTOP+0x8e>
    390c:	13 c0       	rjmp	.+38     	; 0x3934 <timerGetTOP+0x7e>
    390e:	8e 30       	cpi	r24, 0x0E	; 14
    3910:	c9 f0       	breq	.+50     	; 0x3944 <timerGetTOP+0x8e>
    3912:	8f 30       	cpi	r24, 0x0F	; 15
    3914:	79 f0       	breq	.+30     	; 0x3934 <timerGetTOP+0x7e>
    3916:	8c 30       	cpi	r24, 0x0C	; 12
    3918:	e9 f4       	brne	.+58     	; 0x3954 <timerGetTOP+0x9e>
    391a:	14 c0       	rjmp	.+40     	; 0x3944 <timerGetTOP+0x8e>
    391c:	2f ef       	ldi	r18, 0xFF	; 255
    391e:	3f ef       	ldi	r19, 0xFF	; 255
    3920:	1b c0       	rjmp	.+54     	; 0x3958 <timerGetTOP+0xa2>
    3922:	2f ef       	ldi	r18, 0xFF	; 255
    3924:	30 e0       	ldi	r19, 0x00	; 0
    3926:	18 c0       	rjmp	.+48     	; 0x3958 <timerGetTOP+0xa2>
    3928:	2f ef       	ldi	r18, 0xFF	; 255
    392a:	31 e0       	ldi	r19, 0x01	; 1
    392c:	15 c0       	rjmp	.+42     	; 0x3958 <timerGetTOP+0xa2>
    392e:	2f ef       	ldi	r18, 0xFF	; 255
    3930:	33 e0       	ldi	r19, 0x03	; 3
    3932:	12 c0       	rjmp	.+36     	; 0x3958 <timerGetTOP+0xa2>
    3934:	fe 01       	movw	r30, r28
    3936:	77 96       	adiw	r30, 0x17	; 23
    3938:	85 91       	lpm	r24, Z+
    393a:	94 91       	lpm	r25, Z+
    393c:	0e 94 2e 1c 	call	0x385c	; 0x385c <compareGetThreshold>
    3940:	9c 01       	movw	r18, r24
    3942:	0a c0       	rjmp	.+20     	; 0x3958 <timerGetTOP+0xa2>
    3944:	ce 01       	movw	r24, r28
    3946:	4f 96       	adiw	r24, 0x1f	; 31
    3948:	fc 01       	movw	r30, r24
    394a:	a5 91       	lpm	r26, Z+
    394c:	b4 91       	lpm	r27, Z+
    394e:	2d 91       	ld	r18, X+
    3950:	3c 91       	ld	r19, X
    3952:	02 c0       	rjmp	.+4      	; 0x3958 <timerGetTOP+0xa2>
    3954:	20 e0       	ldi	r18, 0x00	; 0
    3956:	30 e0       	ldi	r19, 0x00	; 0
    3958:	26 96       	adiw	r28, 0x06	; 6
    395a:	fe 01       	movw	r30, r28
    395c:	84 91       	lpm	r24, Z+
    395e:	88 23       	and	r24, r24
    3960:	09 f4       	brne	.+2      	; 0x3964 <timerGetTOP+0xae>
    3962:	30 70       	andi	r19, 0x00	; 0
    3964:	c9 01       	movw	r24, r18
    3966:	df 91       	pop	r29
    3968:	cf 91       	pop	r28
    396a:	08 95       	ret

0000396c <timerSnapshotToTicks>:
    396c:	6f 92       	push	r6
    396e:	7f 92       	push	r7
    3970:	8f 92       	push	r8
    3972:	9f 92       	push	r9
    3974:	af 92       	push	r10
    3976:	bf 92       	push	r11
    3978:	cf 92       	push	r12
    397a:	df 92       	push	r13
    397c:	ef 92       	push	r14
    397e:	ff 92       	push	r15
    3980:	0f 93       	push	r16
    3982:	1f 93       	push	r17
    3984:	cf 93       	push	r28
    3986:	df 93       	push	r29
    3988:	8c 01       	movw	r16, r24
    398a:	fc 01       	movw	r30, r24
    398c:	80 81       	ld	r24, Z
    398e:	91 81       	ldd	r25, Z+1	; 0x01
    3990:	0e 94 5b 1c 	call	0x38b6	; 0x38b6 <timerGetTOP>
    3994:	3c 01       	movw	r6, r24
    3996:	88 24       	eor	r8, r8
    3998:	99 24       	eor	r9, r9
    399a:	f8 01       	movw	r30, r16
    399c:	20 81       	ld	r18, Z
    399e:	31 81       	ldd	r19, Z+1	; 0x01
    39a0:	80 91 ef 03 	lds	r24, 0x03EF
    39a4:	90 91 f0 03 	lds	r25, 0x03F0
    39a8:	a2 80       	ldd	r10, Z+2	; 0x02
    39aa:	b3 80       	ldd	r11, Z+3	; 0x03
    39ac:	c4 80       	ldd	r12, Z+4	; 0x04
    39ae:	d5 80       	ldd	r13, Z+5	; 0x05
    39b0:	c6 81       	ldd	r28, Z+6	; 0x06
    39b2:	d7 81       	ldd	r29, Z+7	; 0x07
    39b4:	28 17       	cp	r18, r24
    39b6:	39 07       	cpc	r19, r25
    39b8:	01 f5       	brne	.+64     	; 0x39fa <timerSnapshotToTicks+0x8e>
    39ba:	e0 90 1a 01 	lds	r14, 0x011A
    39be:	f0 90 1b 01 	lds	r15, 0x011B
    39c2:	00 91 1c 01 	lds	r16, 0x011C
    39c6:	10 91 1d 01 	lds	r17, 0x011D
    39ca:	c8 01       	movw	r24, r16
    39cc:	b7 01       	movw	r22, r14
    39ce:	a6 01       	movw	r20, r12
    39d0:	95 01       	movw	r18, r10
    39d2:	0e 94 b6 27 	call	0x4f6c	; 0x4f6c <__mulsi3>
    39d6:	5b 01       	movw	r10, r22
    39d8:	6c 01       	movw	r12, r24
    39da:	be 01       	movw	r22, r28
    39dc:	80 e0       	ldi	r24, 0x00	; 0
    39de:	90 e0       	ldi	r25, 0x00	; 0
    39e0:	a8 01       	movw	r20, r16
    39e2:	97 01       	movw	r18, r14
    39e4:	0e 94 b6 27 	call	0x4f6c	; 0x4f6c <__mulsi3>
    39e8:	a4 01       	movw	r20, r8
    39ea:	93 01       	movw	r18, r6
    39ec:	0e 94 08 28 	call	0x5010	; 0x5010 <__udivmodsi4>
    39f0:	2a 0d       	add	r18, r10
    39f2:	3b 1d       	adc	r19, r11
    39f4:	4c 1d       	adc	r20, r12
    39f6:	5d 1d       	adc	r21, r13
    39f8:	14 c0       	rjmp	.+40     	; 0x3a22 <timerSnapshotToTicks+0xb6>
    39fa:	08 94       	sec
    39fc:	61 1c       	adc	r6, r1
    39fe:	71 1c       	adc	r7, r1
    3a00:	81 1c       	adc	r8, r1
    3a02:	91 1c       	adc	r9, r1
    3a04:	c4 01       	movw	r24, r8
    3a06:	b3 01       	movw	r22, r6
    3a08:	a6 01       	movw	r20, r12
    3a0a:	95 01       	movw	r18, r10
    3a0c:	0e 94 b6 27 	call	0x4f6c	; 0x4f6c <__mulsi3>
    3a10:	9b 01       	movw	r18, r22
    3a12:	ac 01       	movw	r20, r24
    3a14:	ce 01       	movw	r24, r28
    3a16:	a0 e0       	ldi	r26, 0x00	; 0
    3a18:	b0 e0       	ldi	r27, 0x00	; 0
    3a1a:	28 0f       	add	r18, r24
    3a1c:	39 1f       	adc	r19, r25
    3a1e:	4a 1f       	adc	r20, r26
    3a20:	5b 1f       	adc	r21, r27
    3a22:	b9 01       	movw	r22, r18
    3a24:	ca 01       	movw	r24, r20
    3a26:	df 91       	pop	r29
    3a28:	cf 91       	pop	r28
    3a2a:	1f 91       	pop	r17
    3a2c:	0f 91       	pop	r16
    3a2e:	ff 90       	pop	r15
    3a30:	ef 90       	pop	r14
    3a32:	df 90       	pop	r13
    3a34:	cf 90       	pop	r12
    3a36:	bf 90       	pop	r11
    3a38:	af 90       	pop	r10
    3a3a:	9f 90       	pop	r9
    3a3c:	8f 90       	pop	r8
    3a3e:	7f 90       	pop	r7
    3a40:	6f 90       	pop	r6
    3a42:	08 95       	ret

00003a44 <timerGetBestPrescaler>:
    3a44:	4f 92       	push	r4
    3a46:	5f 92       	push	r5
    3a48:	6f 92       	push	r6
    3a4a:	7f 92       	push	r7
    3a4c:	8f 92       	push	r8
    3a4e:	9f 92       	push	r9
    3a50:	af 92       	push	r10
    3a52:	bf 92       	push	r11
    3a54:	cf 92       	push	r12
    3a56:	df 92       	push	r13
    3a58:	ef 92       	push	r14
    3a5a:	ff 92       	push	r15
    3a5c:	0f 93       	push	r16
    3a5e:	1f 93       	push	r17
    3a60:	cf 93       	push	r28
    3a62:	df 93       	push	r29
    3a64:	8c 01       	movw	r16, r24
    3a66:	0a 5f       	subi	r16, 0xFA	; 250
    3a68:	1f 4f       	sbci	r17, 0xFF	; 255
    3a6a:	f8 01       	movw	r30, r16
    3a6c:	84 91       	lpm	r24, Z+
    3a6e:	06 50       	subi	r16, 0x06	; 6
    3a70:	10 40       	sbci	r17, 0x00	; 0
    3a72:	88 23       	and	r24, r24
    3a74:	31 f4       	brne	.+12     	; 0x3a82 <timerGetBestPrescaler+0x3e>
    3a76:	2f ef       	ldi	r18, 0xFF	; 255
    3a78:	a2 2e       	mov	r10, r18
    3a7a:	b1 2c       	mov	r11, r1
    3a7c:	c1 2c       	mov	r12, r1
    3a7e:	d1 2c       	mov	r13, r1
    3a80:	06 c0       	rjmp	.+12     	; 0x3a8e <timerGetBestPrescaler+0x4a>
    3a82:	9f ef       	ldi	r25, 0xFF	; 255
    3a84:	a9 2e       	mov	r10, r25
    3a86:	9f ef       	ldi	r25, 0xFF	; 255
    3a88:	b9 2e       	mov	r11, r25
    3a8a:	c1 2c       	mov	r12, r1
    3a8c:	d1 2c       	mov	r13, r1
    3a8e:	c1 e0       	ldi	r28, 0x01	; 1
    3a90:	d0 e0       	ldi	r29, 0x00	; 0
    3a92:	81 e0       	ldi	r24, 0x01	; 1
    3a94:	48 2e       	mov	r4, r24
    3a96:	51 2c       	mov	r5, r1
    3a98:	ee 24       	eor	r14, r14
    3a9a:	ff 24       	eor	r15, r15
    3a9c:	3b 01       	movw	r6, r22
    3a9e:	88 24       	eor	r8, r8
    3aa0:	99 24       	eor	r9, r9
    3aa2:	c8 01       	movw	r24, r16
    3aa4:	be 01       	movw	r22, r28
    3aa6:	0e 94 22 19 	call	0x3244	; 0x3244 <__timerPrescalerIndex>
    3aaa:	8f 5f       	subi	r24, 0xFF	; 255
    3aac:	9f 4f       	sbci	r25, 0xFF	; 255
    3aae:	59 f0       	breq	.+22     	; 0x3ac6 <timerGetBestPrescaler+0x82>
    3ab0:	c4 01       	movw	r24, r8
    3ab2:	b3 01       	movw	r22, r6
    3ab4:	ae 01       	movw	r20, r28
    3ab6:	0e 94 c0 18 	call	0x3180	; 0x3180 <ticks_per_ms>
    3aba:	a6 16       	cp	r10, r22
    3abc:	b7 06       	cpc	r11, r23
    3abe:	c8 06       	cpc	r12, r24
    3ac0:	d9 06       	cpc	r13, r25
    3ac2:	70 f4       	brcc	.+28     	; 0x3ae0 <timerGetBestPrescaler+0x9c>
    3ac4:	2e 01       	movw	r4, r28
    3ac6:	cc 0f       	add	r28, r28
    3ac8:	dd 1f       	adc	r29, r29
    3aca:	08 94       	sec
    3acc:	e1 1c       	adc	r14, r1
    3ace:	f1 1c       	adc	r15, r1
    3ad0:	2b e0       	ldi	r18, 0x0B	; 11
    3ad2:	e2 16       	cp	r14, r18
    3ad4:	f1 04       	cpc	r15, r1
    3ad6:	29 f7       	brne	.-54     	; 0x3aa2 <timerGetBestPrescaler+0x5e>
    3ad8:	88 ef       	ldi	r24, 0xF8	; 248
    3ada:	0e 94 69 1b 	call	0x36d2	; 0x36d2 <setError>
    3ade:	e2 01       	movw	r28, r4
    3ae0:	ce 01       	movw	r24, r28
    3ae2:	df 91       	pop	r29
    3ae4:	cf 91       	pop	r28
    3ae6:	1f 91       	pop	r17
    3ae8:	0f 91       	pop	r16
    3aea:	ff 90       	pop	r15
    3aec:	ef 90       	pop	r14
    3aee:	df 90       	pop	r13
    3af0:	cf 90       	pop	r12
    3af2:	bf 90       	pop	r11
    3af4:	af 90       	pop	r10
    3af6:	9f 90       	pop	r9
    3af8:	8f 90       	pop	r8
    3afa:	7f 90       	pop	r7
    3afc:	6f 90       	pop	r6
    3afe:	5f 90       	pop	r5
    3b00:	4f 90       	pop	r4
    3b02:	08 95       	ret

00003b04 <timerSetPrescaler>:
    3b04:	df 92       	push	r13
    3b06:	ef 92       	push	r14
    3b08:	ff 92       	push	r15
    3b0a:	0f 93       	push	r16
    3b0c:	1f 93       	push	r17
    3b0e:	cf 93       	push	r28
    3b10:	df 93       	push	r29
    3b12:	ec 01       	movw	r28, r24
    3b14:	7b 01       	movw	r14, r22
    3b16:	fc 01       	movw	r30, r24
    3b18:	34 96       	adiw	r30, 0x04	; 4
    3b1a:	05 91       	lpm	r16, Z+
    3b1c:	14 91       	lpm	r17, Z+
    3b1e:	df b6       	in	r13, 0x3f	; 63
    3b20:	f8 94       	cli
    3b22:	0e 94 22 19 	call	0x3244	; 0x3244 <__timerPrescalerIndex>
    3b26:	ac 01       	movw	r20, r24
    3b28:	8f ef       	ldi	r24, 0xFF	; 255
    3b2a:	4f 3f       	cpi	r20, 0xFF	; 255
    3b2c:	58 07       	cpc	r21, r24
    3b2e:	69 f0       	breq	.+26     	; 0x3b4a <timerSetPrescaler+0x46>
    3b30:	fe 01       	movw	r30, r28
    3b32:	a5 91       	lpm	r26, Z+
    3b34:	b4 91       	lpm	r27, Z+
    3b36:	ed 92       	st	X+, r14
    3b38:	fc 92       	st	X, r15
    3b3a:	f8 01       	movw	r30, r16
    3b3c:	80 81       	ld	r24, Z
    3b3e:	88 7f       	andi	r24, 0xF8	; 248
    3b40:	80 83       	st	Z, r24
    3b42:	80 81       	ld	r24, Z
    3b44:	84 2b       	or	r24, r20
    3b46:	80 83       	st	Z, r24
    3b48:	03 c0       	rjmp	.+6      	; 0x3b50 <timerSetPrescaler+0x4c>
    3b4a:	8a ef       	ldi	r24, 0xFA	; 250
    3b4c:	0e 94 69 1b 	call	0x36d2	; 0x36d2 <setError>
    3b50:	df be       	out	0x3f, r13	; 63
    3b52:	df 91       	pop	r29
    3b54:	cf 91       	pop	r28
    3b56:	1f 91       	pop	r17
    3b58:	0f 91       	pop	r16
    3b5a:	ff 90       	pop	r15
    3b5c:	ef 90       	pop	r14
    3b5e:	df 90       	pop	r13
    3b60:	08 95       	ret

00003b62 <timerInit>:
    3b62:	7f 92       	push	r7
    3b64:	8f 92       	push	r8
    3b66:	9f 92       	push	r9
    3b68:	af 92       	push	r10
    3b6a:	bf 92       	push	r11
    3b6c:	cf 92       	push	r12
    3b6e:	df 92       	push	r13
    3b70:	ef 92       	push	r14
    3b72:	ff 92       	push	r15
    3b74:	0f 93       	push	r16
    3b76:	1f 93       	push	r17
    3b78:	cf 93       	push	r28
    3b7a:	df 93       	push	r29
    3b7c:	ec 01       	movw	r28, r24
    3b7e:	fc 01       	movw	r30, r24
    3b80:	32 96       	adiw	r30, 0x02	; 2
    3b82:	05 91       	lpm	r16, Z+
    3b84:	14 91       	lpm	r17, Z+
    3b86:	fc 01       	movw	r30, r24
    3b88:	85 90       	lpm	r8, Z+
    3b8a:	94 90       	lpm	r9, Z+
    3b8c:	7f b6       	in	r7, 0x3f	; 63
    3b8e:	f8 94       	cli
    3b90:	04 96       	adiw	r24, 0x04	; 4
    3b92:	fc 01       	movw	r30, r24
    3b94:	a5 91       	lpm	r26, Z+
    3b96:	b4 91       	lpm	r27, Z+
    3b98:	8c 91       	ld	r24, X
    3b9a:	88 7f       	andi	r24, 0xF8	; 248
    3b9c:	8c 93       	st	X, r24
    3b9e:	39 e1       	ldi	r19, 0x19	; 25
    3ba0:	a3 2e       	mov	r10, r19
    3ba2:	b1 2c       	mov	r11, r1
    3ba4:	ac 0e       	add	r10, r28
    3ba6:	bd 1e       	adc	r11, r29
    3ba8:	c5 01       	movw	r24, r10
    3baa:	0e 94 6b 11 	call	0x22d6	; 0x22d6 <__portMaskClear>
    3bae:	f8 01       	movw	r30, r16
    3bb0:	10 82       	st	Z, r1
    3bb2:	f4 01       	movw	r30, r8
    3bb4:	60 81       	ld	r22, Z
    3bb6:	71 81       	ldd	r23, Z+1	; 0x01
    3bb8:	ce 01       	movw	r24, r28
    3bba:	0e 94 82 1d 	call	0x3b04	; 0x3b04 <timerSetPrescaler>
    3bbe:	28 96       	adiw	r28, 0x08	; 8
    3bc0:	fe 01       	movw	r30, r28
    3bc2:	e4 90       	lpm	r14, Z+
    3bc4:	2f 96       	adiw	r28, 0x0f	; 15
    3bc6:	ff 24       	eor	r15, r15
    3bc8:	00 e0       	ldi	r16, 0x00	; 0
    3bca:	10 e0       	ldi	r17, 0x00	; 0
    3bcc:	fe 01       	movw	r30, r28
    3bce:	c5 90       	lpm	r12, Z+
    3bd0:	d4 90       	lpm	r13, Z+
    3bd2:	67 97       	sbiw	r28, 0x17	; 23
    3bd4:	09 c0       	rjmp	.+18     	; 0x3be8 <timerInit+0x86>
    3bd6:	c6 01       	movw	r24, r12
    3bd8:	80 0f       	add	r24, r16
    3bda:	91 1f       	adc	r25, r17
    3bdc:	08 96       	adiw	r24, 0x08	; 8
    3bde:	0e 94 52 11 	call	0x22a4	; 0x22a4 <__portMaskSet>
    3be2:	f3 94       	inc	r15
    3be4:	00 5f       	subi	r16, 0xF0	; 240
    3be6:	1f 4f       	sbci	r17, 0xFF	; 255
    3be8:	fe 14       	cp	r15, r14
    3bea:	a8 f3       	brcs	.-22     	; 0x3bd6 <timerInit+0x74>
    3bec:	ce 01       	movw	r24, r28
    3bee:	4c 96       	adiw	r24, 0x1c	; 28
    3bf0:	0e 94 52 11 	call	0x22a4	; 0x22a4 <__portMaskSet>
    3bf4:	f4 01       	movw	r30, r8
    3bf6:	82 81       	ldd	r24, Z+2	; 0x02
    3bf8:	93 81       	ldd	r25, Z+3	; 0x03
    3bfa:	89 2b       	or	r24, r25
    3bfc:	19 f0       	breq	.+6      	; 0x3c04 <timerInit+0xa2>
    3bfe:	c5 01       	movw	r24, r10
    3c00:	0e 94 52 11 	call	0x22a4	; 0x22a4 <__portMaskSet>
    3c04:	7f be       	out	0x3f, r7	; 63
    3c06:	df 91       	pop	r29
    3c08:	cf 91       	pop	r28
    3c0a:	1f 91       	pop	r17
    3c0c:	0f 91       	pop	r16
    3c0e:	ff 90       	pop	r15
    3c10:	ef 90       	pop	r14
    3c12:	df 90       	pop	r13
    3c14:	cf 90       	pop	r12
    3c16:	bf 90       	pop	r11
    3c18:	af 90       	pop	r10
    3c1a:	9f 90       	pop	r9
    3c1c:	8f 90       	pop	r8
    3c1e:	7f 90       	pop	r7
    3c20:	08 95       	ret

00003c22 <timerSetMode>:
    3c22:	df 92       	push	r13
    3c24:	ef 92       	push	r14
    3c26:	ff 92       	push	r15
    3c28:	0f 93       	push	r16
    3c2a:	1f 93       	push	r17
    3c2c:	cf 93       	push	r28
    3c2e:	df 93       	push	r29
    3c30:	8c 01       	movw	r16, r24
    3c32:	66 23       	and	r22, r22
    3c34:	41 f0       	breq	.+16     	; 0x3c46 <timerSetMode+0x24>
    3c36:	fc 01       	movw	r30, r24
    3c38:	a5 91       	lpm	r26, Z+
    3c3a:	b4 91       	lpm	r27, Z+
    3c3c:	1a 96       	adiw	r26, 0x0a	; 10
    3c3e:	8c 91       	ld	r24, X
    3c40:	86 17       	cp	r24, r22
    3c42:	09 f4       	brne	.+2      	; 0x3c46 <timerSetMode+0x24>
    3c44:	7a c0       	rjmp	.+244    	; 0x3d3a <timerSetMode+0x118>
    3c46:	f8 01       	movw	r30, r16
    3c48:	39 96       	adiw	r30, 0x09	; 9
    3c4a:	25 91       	lpm	r18, Z+
    3c4c:	34 91       	lpm	r19, Z+
    3c4e:	81 e0       	ldi	r24, 0x01	; 1
    3c50:	90 e0       	ldi	r25, 0x00	; 0
    3c52:	06 2e       	mov	r0, r22
    3c54:	02 c0       	rjmp	.+4      	; 0x3c5a <timerSetMode+0x38>
    3c56:	88 0f       	add	r24, r24
    3c58:	99 1f       	adc	r25, r25
    3c5a:	0a 94       	dec	r0
    3c5c:	e2 f7       	brpl	.-8      	; 0x3c56 <timerSetMode+0x34>
    3c5e:	82 23       	and	r24, r18
    3c60:	93 23       	and	r25, r19
    3c62:	89 2b       	or	r24, r25
    3c64:	09 f4       	brne	.+2      	; 0x3c68 <timerSetMode+0x46>
    3c66:	66 c0       	rjmp	.+204    	; 0x3d34 <timerSetMode+0x112>
    3c68:	f8 01       	movw	r30, r16
    3c6a:	a5 91       	lpm	r26, Z+
    3c6c:	b4 91       	lpm	r27, Z+
    3c6e:	1a 96       	adiw	r26, 0x0a	; 10
    3c70:	6c 93       	st	X, r22
    3c72:	ff ed       	ldi	r31, 0xDF	; 223
    3c74:	2f 3f       	cpi	r18, 0xFF	; 255
    3c76:	3f 07       	cpc	r19, r31
    3c78:	11 f4       	brne	.+4      	; 0x3c7e <timerSetMode+0x5c>
    3c7a:	d6 2e       	mov	r13, r22
    3c7c:	13 c0       	rjmp	.+38     	; 0x3ca4 <timerSetMode+0x82>
    3c7e:	88 e8       	ldi	r24, 0x88	; 136
    3c80:	23 33       	cpi	r18, 0x33	; 51
    3c82:	38 07       	cpc	r19, r24
    3c84:	31 f4       	brne	.+12     	; 0x3c92 <timerSetMode+0x70>
    3c86:	e6 2f       	mov	r30, r22
    3c88:	f0 e0       	ldi	r31, 0x00	; 0
    3c8a:	e4 55       	subi	r30, 0x54	; 84
    3c8c:	fd 4f       	sbci	r31, 0xFD	; 253
    3c8e:	d4 90       	lpm	r13, Z+
    3c90:	09 c0       	rjmp	.+18     	; 0x3ca4 <timerSetMode+0x82>
    3c92:	23 33       	cpi	r18, 0x33	; 51
    3c94:	31 05       	cpc	r19, r1
    3c96:	09 f0       	breq	.+2      	; 0x3c9a <timerSetMode+0x78>
    3c98:	4d c0       	rjmp	.+154    	; 0x3d34 <timerSetMode+0x112>
    3c9a:	e6 2f       	mov	r30, r22
    3c9c:	f0 e0       	ldi	r31, 0x00	; 0
    3c9e:	e4 54       	subi	r30, 0x44	; 68
    3ca0:	fd 4f       	sbci	r31, 0xFD	; 253
    3ca2:	d4 90       	lpm	r13, Z+
    3ca4:	ef ef       	ldi	r30, 0xFF	; 255
    3ca6:	de 16       	cp	r13, r30
    3ca8:	09 f4       	brne	.+2      	; 0x3cac <timerSetMode+0x8a>
    3caa:	44 c0       	rjmp	.+136    	; 0x3d34 <timerSetMode+0x112>
    3cac:	c8 01       	movw	r24, r16
    3cae:	04 96       	adiw	r24, 0x04	; 4
    3cb0:	fc 01       	movw	r30, r24
    3cb2:	a5 91       	lpm	r26, Z+
    3cb4:	b4 91       	lpm	r27, Z+
    3cb6:	8c 91       	ld	r24, X
    3cb8:	88 7f       	andi	r24, 0xF8	; 248
    3cba:	8c 93       	st	X, r24
    3cbc:	e8 01       	movw	r28, r16
    3cbe:	2b 96       	adiw	r28, 0x0b	; 11
    3cc0:	ee 24       	eor	r14, r14
    3cc2:	ff 24       	eor	r15, r15
    3cc4:	e8 81       	ld	r30, Y
    3cc6:	f9 81       	ldd	r31, Y+1	; 0x01
    3cc8:	85 91       	lpm	r24, Z+
    3cca:	94 91       	lpm	r25, Z+
    3ccc:	89 2b       	or	r24, r25
    3cce:	99 f0       	breq	.+38     	; 0x3cf6 <timerSetMode+0xd4>
    3cd0:	d0 fe       	sbrs	r13, 0
    3cd2:	04 c0       	rjmp	.+8      	; 0x3cdc <timerSetMode+0xba>
    3cd4:	ce 01       	movw	r24, r28
    3cd6:	0e 94 52 11 	call	0x22a4	; 0x22a4 <__portMaskSet>
    3cda:	03 c0       	rjmp	.+6      	; 0x3ce2 <timerSetMode+0xc0>
    3cdc:	ce 01       	movw	r24, r28
    3cde:	0e 94 6b 11 	call	0x22d6	; 0x22d6 <__portMaskClear>
    3ce2:	08 94       	sec
    3ce4:	e1 1c       	adc	r14, r1
    3ce6:	f1 1c       	adc	r15, r1
    3ce8:	f4 e0       	ldi	r31, 0x04	; 4
    3cea:	ef 16       	cp	r14, r31
    3cec:	f1 04       	cpc	r15, r1
    3cee:	19 f0       	breq	.+6      	; 0x3cf6 <timerSetMode+0xd4>
    3cf0:	d6 94       	lsr	r13
    3cf2:	23 96       	adiw	r28, 0x03	; 3
    3cf4:	e7 cf       	rjmp	.-50     	; 0x3cc4 <timerSetMode+0xa2>
    3cf6:	08 5f       	subi	r16, 0xF8	; 248
    3cf8:	1f 4f       	sbci	r17, 0xFF	; 255
    3cfa:	f8 01       	movw	r30, r16
    3cfc:	f4 90       	lpm	r15, Z+
    3cfe:	fa 94       	dec	r15
    3d00:	01 5f       	subi	r16, 0xF1	; 241
    3d02:	1f 4f       	sbci	r17, 0xFF	; 255
    3d04:	f8 01       	movw	r30, r16
    3d06:	c5 91       	lpm	r28, Z+
    3d08:	d4 91       	lpm	r29, Z+
    3d0a:	07 51       	subi	r16, 0x17	; 23
    3d0c:	10 40       	sbci	r17, 0x00	; 0
    3d0e:	0c c0       	rjmp	.+24     	; 0x3d28 <timerSetMode+0x106>
    3d10:	8f 2d       	mov	r24, r15
    3d12:	90 e0       	ldi	r25, 0x00	; 0
    3d14:	44 e0       	ldi	r20, 0x04	; 4
    3d16:	88 0f       	add	r24, r24
    3d18:	99 1f       	adc	r25, r25
    3d1a:	4a 95       	dec	r20
    3d1c:	e1 f7       	brne	.-8      	; 0x3d16 <timerSetMode+0xf4>
    3d1e:	8c 0f       	add	r24, r28
    3d20:	9d 1f       	adc	r25, r29
    3d22:	0e 94 d5 1b 	call	0x37aa	; 0x37aa <compareDetach>
    3d26:	fa 94       	dec	r15
    3d28:	f7 fe       	sbrs	r15, 7
    3d2a:	f2 cf       	rjmp	.-28     	; 0x3d10 <timerSetMode+0xee>
    3d2c:	c8 01       	movw	r24, r16
    3d2e:	0e 94 b1 1d 	call	0x3b62	; 0x3b62 <timerInit>
    3d32:	03 c0       	rjmp	.+6      	; 0x3d3a <timerSetMode+0x118>
    3d34:	86 ef       	ldi	r24, 0xF6	; 246
    3d36:	0e 94 69 1b 	call	0x36d2	; 0x36d2 <setError>
    3d3a:	df 91       	pop	r29
    3d3c:	cf 91       	pop	r28
    3d3e:	1f 91       	pop	r17
    3d40:	0f 91       	pop	r16
    3d42:	ff 90       	pop	r15
    3d44:	ef 90       	pop	r14
    3d46:	df 90       	pop	r13
    3d48:	08 95       	ret

00003d4a <initTimers>:
    3d4a:	df 92       	push	r13
    3d4c:	ef 92       	push	r14
    3d4e:	ff 92       	push	r15
    3d50:	0f 93       	push	r16
    3d52:	1f 93       	push	r17
    3d54:	f8 94       	cli
    3d56:	ff 24       	eor	r15, r15
    3d58:	e0 90 6a 00 	lds	r14, 0x006A
    3d5c:	5c e2       	ldi	r21, 0x2C	; 44
    3d5e:	d5 2e       	mov	r13, r21
    3d60:	1c c0       	rjmp	.+56     	; 0x3d9a <initTimers+0x50>
    3d62:	fd 9c       	mul	r15, r13
    3d64:	80 01       	movw	r16, r0
    3d66:	11 24       	eor	r1, r1
    3d68:	02 5f       	subi	r16, 0xF2	; 242
    3d6a:	1e 4f       	sbci	r17, 0xFE	; 254
    3d6c:	c8 01       	movw	r24, r16
    3d6e:	60 e0       	ldi	r22, 0x00	; 0
    3d70:	70 e0       	ldi	r23, 0x00	; 0
    3d72:	40 e0       	ldi	r20, 0x00	; 0
    3d74:	50 e0       	ldi	r21, 0x00	; 0
    3d76:	0e 94 f7 21 	call	0x43ee	; 0x43ee <timerOverflowAttach>
    3d7a:	c8 01       	movw	r24, r16
    3d7c:	0e 94 2b 21 	call	0x4256	; 0x4256 <timerCaptureDetach>
    3d80:	c8 01       	movw	r24, r16
    3d82:	60 e0       	ldi	r22, 0x00	; 0
    3d84:	0e 94 11 1e 	call	0x3c22	; 0x3c22 <timerSetMode>
    3d88:	c8 01       	movw	r24, r16
    3d8a:	04 96       	adiw	r24, 0x04	; 4
    3d8c:	fc 01       	movw	r30, r24
    3d8e:	a5 91       	lpm	r26, Z+
    3d90:	b4 91       	lpm	r27, Z+
    3d92:	8c 91       	ld	r24, X
    3d94:	88 7f       	andi	r24, 0xF8	; 248
    3d96:	8c 93       	st	X, r24
    3d98:	f3 94       	inc	r15
    3d9a:	fe 14       	cp	r15, r14
    3d9c:	10 f3       	brcs	.-60     	; 0x3d62 <initTimers+0x18>
    3d9e:	78 94       	sei
    3da0:	1f 91       	pop	r17
    3da2:	0f 91       	pop	r16
    3da4:	ff 90       	pop	r15
    3da6:	ef 90       	pop	r14
    3da8:	df 90       	pop	r13
    3daa:	08 95       	ret

00003dac <compareAttach>:
    3dac:	8f 92       	push	r8
    3dae:	9f 92       	push	r9
    3db0:	af 92       	push	r10
    3db2:	bf 92       	push	r11
    3db4:	cf 92       	push	r12
    3db6:	df 92       	push	r13
    3db8:	ef 92       	push	r14
    3dba:	ff 92       	push	r15
    3dbc:	0f 93       	push	r16
    3dbe:	1f 93       	push	r17
    3dc0:	cf 93       	push	r28
    3dc2:	df 93       	push	r29
    3dc4:	8c 01       	movw	r16, r24
    3dc6:	6b 01       	movw	r12, r22
    3dc8:	5a 01       	movw	r10, r20
    3dca:	49 01       	movw	r8, r18
    3dcc:	0e 5f       	subi	r16, 0xFE	; 254
    3dce:	1f 4f       	sbci	r17, 0xFF	; 255
    3dd0:	f8 01       	movw	r30, r16
    3dd2:	84 91       	lpm	r24, Z+
    3dd4:	02 50       	subi	r16, 0x02	; 2
    3dd6:	10 40       	sbci	r17, 0x00	; 0
    3dd8:	9c e2       	ldi	r25, 0x2C	; 44
    3dda:	89 9f       	mul	r24, r25
    3ddc:	e0 01       	movw	r28, r0
    3dde:	11 24       	eor	r1, r1
    3de0:	c2 5f       	subi	r28, 0xF2	; 242
    3de2:	de 4f       	sbci	r29, 0xFE	; 254
    3de4:	28 96       	adiw	r28, 0x08	; 8
    3de6:	fe 01       	movw	r30, r28
    3de8:	84 91       	lpm	r24, Z+
    3dea:	28 97       	sbiw	r28, 0x08	; 8
    3dec:	88 23       	and	r24, r24
    3dee:	a1 f1       	breq	.+104    	; 0x3e58 <compareAttach+0xac>
    3df0:	f8 01       	movw	r30, r16
    3df2:	e5 90       	lpm	r14, Z+
    3df4:	f4 90       	lpm	r15, Z+
    3df6:	61 15       	cp	r22, r1
    3df8:	71 05       	cpc	r23, r1
    3dfa:	41 f0       	breq	.+16     	; 0x3e0c <compareAttach+0x60>
    3dfc:	f7 01       	movw	r30, r14
    3dfe:	80 81       	ld	r24, Z
    3e00:	91 81       	ldd	r25, Z+1	; 0x01
    3e02:	89 2b       	or	r24, r25
    3e04:	19 f0       	breq	.+6      	; 0x3e0c <compareAttach+0x60>
    3e06:	8b ef       	ldi	r24, 0xFB	; 251
    3e08:	0e 94 69 1b 	call	0x36d2	; 0x36d2 <setError>
    3e0c:	ce 01       	movw	r24, r28
    3e0e:	fe 01       	movw	r30, r28
    3e10:	a5 91       	lpm	r26, Z+
    3e12:	b4 91       	lpm	r27, Z+
    3e14:	6d 91       	ld	r22, X+
    3e16:	7c 91       	ld	r23, X
    3e18:	0e 94 82 1d 	call	0x3b04	; 0x3b04 <timerSetPrescaler>
    3e1c:	e8 01       	movw	r28, r16
    3e1e:	23 96       	adiw	r28, 0x03	; 3
    3e20:	ce 01       	movw	r24, r28
    3e22:	0e 94 6b 11 	call	0x22d6	; 0x22d6 <__portMaskClear>
    3e26:	c8 01       	movw	r24, r16
    3e28:	b5 01       	movw	r22, r10
    3e2a:	0e 94 f9 1b 	call	0x37f2	; 0x37f2 <compareSetThreshold>
    3e2e:	f7 01       	movw	r30, r14
    3e30:	d1 82       	std	Z+1, r13	; 0x01
    3e32:	c0 82       	st	Z, r12
    3e34:	93 82       	std	Z+3, r9	; 0x03
    3e36:	82 82       	std	Z+2, r8	; 0x02
    3e38:	c8 01       	movw	r24, r16
    3e3a:	08 96       	adiw	r24, 0x08	; 8
    3e3c:	0e 94 52 11 	call	0x22a4	; 0x22a4 <__portMaskSet>
    3e40:	c1 14       	cp	r12, r1
    3e42:	d1 04       	cpc	r13, r1
    3e44:	61 f0       	breq	.+24     	; 0x3e5e <compareAttach+0xb2>
    3e46:	fd e0       	ldi	r31, 0x0D	; 13
    3e48:	cf 16       	cp	r12, r31
    3e4a:	f9 e1       	ldi	r31, 0x19	; 25
    3e4c:	df 06       	cpc	r13, r31
    3e4e:	39 f0       	breq	.+14     	; 0x3e5e <compareAttach+0xb2>
    3e50:	ce 01       	movw	r24, r28
    3e52:	0e 94 52 11 	call	0x22a4	; 0x22a4 <__portMaskSet>
    3e56:	03 c0       	rjmp	.+6      	; 0x3e5e <compareAttach+0xb2>
    3e58:	8d ef       	ldi	r24, 0xFD	; 253
    3e5a:	0e 94 69 1b 	call	0x36d2	; 0x36d2 <setError>
    3e5e:	df 91       	pop	r29
    3e60:	cf 91       	pop	r28
    3e62:	1f 91       	pop	r17
    3e64:	0f 91       	pop	r16
    3e66:	ff 90       	pop	r15
    3e68:	ef 90       	pop	r14
    3e6a:	df 90       	pop	r13
    3e6c:	cf 90       	pop	r12
    3e6e:	bf 90       	pop	r11
    3e70:	af 90       	pop	r10
    3e72:	9f 90       	pop	r9
    3e74:	8f 90       	pop	r8
    3e76:	08 95       	ret

00003e78 <__clockInit>:
    3e78:	2f 92       	push	r2
    3e7a:	3f 92       	push	r3
    3e7c:	4f 92       	push	r4
    3e7e:	5f 92       	push	r5
    3e80:	6f 92       	push	r6
    3e82:	7f 92       	push	r7
    3e84:	8f 92       	push	r8
    3e86:	9f 92       	push	r9
    3e88:	af 92       	push	r10
    3e8a:	bf 92       	push	r11
    3e8c:	cf 92       	push	r12
    3e8e:	df 92       	push	r13
    3e90:	ef 92       	push	r14
    3e92:	ff 92       	push	r15
    3e94:	0f 93       	push	r16
    3e96:	1f 93       	push	r17
    3e98:	df 93       	push	r29
    3e9a:	cf 93       	push	r28
    3e9c:	00 d0       	rcall	.+0      	; 0x3e9e <__clockInit+0x26>
    3e9e:	00 d0       	rcall	.+0      	; 0x3ea0 <__clockInit+0x28>
    3ea0:	cd b7       	in	r28, 0x3d	; 61
    3ea2:	de b7       	in	r29, 0x3e	; 62
    3ea4:	10 92 f0 03 	sts	0x03F0, r1
    3ea8:	10 92 ef 03 	sts	0x03EF, r1
    3eac:	00 91 6a 00 	lds	r16, 0x006A
    3eb0:	01 50       	subi	r16, 0x01	; 1
    3eb2:	8c e2       	ldi	r24, 0x2C	; 44
    3eb4:	08 02       	muls	r16, r24
    3eb6:	60 01       	movw	r12, r0
    3eb8:	11 24       	eor	r1, r1
    3eba:	2e e0       	ldi	r18, 0x0E	; 14
    3ebc:	31 e0       	ldi	r19, 0x01	; 1
    3ebe:	c2 0e       	add	r12, r18
    3ec0:	d3 1e       	adc	r13, r19
    3ec2:	aa 24       	eor	r10, r10
    3ec4:	bb 24       	eor	r11, r11
    3ec6:	22 24       	eor	r2, r2
    3ec8:	33 24       	eor	r3, r3
    3eca:	1a 82       	std	Y+2, r1	; 0x02
    3ecc:	19 82       	std	Y+1, r1	; 0x01
    3ece:	52 c0       	rjmp	.+164    	; 0x3f74 <__clockInit+0xfc>
    3ed0:	c6 01       	movw	r24, r12
    3ed2:	04 96       	adiw	r24, 0x04	; 4
    3ed4:	fc 01       	movw	r30, r24
    3ed6:	a5 91       	lpm	r26, Z+
    3ed8:	b4 91       	lpm	r27, Z+
    3eda:	8c 91       	ld	r24, X
    3edc:	90 e0       	ldi	r25, 0x00	; 0
    3ede:	87 70       	andi	r24, 0x07	; 7
    3ee0:	90 70       	andi	r25, 0x00	; 0
    3ee2:	89 2b       	or	r24, r25
    3ee4:	09 f0       	breq	.+2      	; 0x3ee8 <__clockInit+0x70>
    3ee6:	41 c0       	rjmp	.+130    	; 0x3f6a <__clockInit+0xf2>
    3ee8:	db c0       	rjmp	.+438    	; 0x40a0 <__clockInit+0x228>
    3eea:	28 e0       	ldi	r18, 0x08	; 8
    3eec:	30 e0       	ldi	r19, 0x00	; 0
    3eee:	c2 0e       	add	r12, r18
    3ef0:	d3 1e       	adc	r13, r19
    3ef2:	f6 01       	movw	r30, r12
    3ef4:	84 91       	lpm	r24, Z+
    3ef6:	28 ef       	ldi	r18, 0xF8	; 248
    3ef8:	3f ef       	ldi	r19, 0xFF	; 255
    3efa:	c2 0e       	add	r12, r18
    3efc:	d3 1e       	adc	r13, r19
    3efe:	82 30       	cpi	r24, 0x02	; 2
    3f00:	a0 f1       	brcs	.+104    	; 0x3f6a <__clockInit+0xf2>
    3f02:	3f ef       	ldi	r19, 0xFF	; 255
    3f04:	23 16       	cp	r2, r19
    3f06:	31 04       	cpc	r3, r1
    3f08:	69 f0       	breq	.+26     	; 0x3f24 <__clockInit+0xac>
    3f0a:	60 f0       	brcs	.+24     	; 0x3f24 <__clockInit+0xac>
    3f0c:	86 e0       	ldi	r24, 0x06	; 6
    3f0e:	90 e0       	ldi	r25, 0x00	; 0
    3f10:	c8 0e       	add	r12, r24
    3f12:	d9 1e       	adc	r13, r25
    3f14:	f6 01       	movw	r30, r12
    3f16:	84 91       	lpm	r24, Z+
    3f18:	2a ef       	ldi	r18, 0xFA	; 250
    3f1a:	3f ef       	ldi	r19, 0xFF	; 255
    3f1c:	c2 0e       	add	r12, r18
    3f1e:	d3 1e       	adc	r13, r19
    3f20:	88 23       	and	r24, r24
    3f22:	19 f1       	breq	.+70     	; 0x3f6a <__clockInit+0xf2>
    3f24:	c6 01       	movw	r24, r12
    3f26:	6c e0       	ldi	r22, 0x0C	; 12
    3f28:	70 e0       	ldi	r23, 0x00	; 0
    3f2a:	0e 94 22 1d 	call	0x3a44	; 0x3a44 <timerGetBestPrescaler>
    3f2e:	f8 2e       	mov	r15, r24
    3f30:	e9 2e       	mov	r14, r25
    3f32:	6c e0       	ldi	r22, 0x0C	; 12
    3f34:	70 e0       	ldi	r23, 0x00	; 0
    3f36:	80 e0       	ldi	r24, 0x00	; 0
    3f38:	90 e0       	ldi	r25, 0x00	; 0
    3f3a:	4f 2d       	mov	r20, r15
    3f3c:	5e 2d       	mov	r21, r14
    3f3e:	0e 94 c0 18 	call	0x3180	; 0x3180 <ticks_per_ms>
    3f42:	9b 01       	movw	r18, r22
    3f44:	ac 01       	movw	r20, r24
    3f46:	a1 14       	cp	r10, r1
    3f48:	b1 04       	cpc	r11, r1
    3f4a:	41 f0       	breq	.+16     	; 0x3f5c <__clockInit+0xe4>
    3f4c:	c1 01       	movw	r24, r2
    3f4e:	a0 e0       	ldi	r26, 0x00	; 0
    3f50:	b0 e0       	ldi	r27, 0x00	; 0
    3f52:	82 17       	cp	r24, r18
    3f54:	93 07       	cpc	r25, r19
    3f56:	a4 07       	cpc	r26, r20
    3f58:	b5 07       	cpc	r27, r21
    3f5a:	38 f4       	brcc	.+14     	; 0x3f6a <__clockInit+0xf2>
    3f5c:	19 01       	movw	r2, r18
    3f5e:	56 01       	movw	r10, r12
    3f60:	8f 2d       	mov	r24, r15
    3f62:	9e 2d       	mov	r25, r14
    3f64:	9c 01       	movw	r18, r24
    3f66:	3a 83       	std	Y+2, r19	; 0x02
    3f68:	29 83       	std	Y+1, r18	; 0x01
    3f6a:	01 50       	subi	r16, 0x01	; 1
    3f6c:	84 ed       	ldi	r24, 0xD4	; 212
    3f6e:	9f ef       	ldi	r25, 0xFF	; 255
    3f70:	c8 0e       	add	r12, r24
    3f72:	d9 1e       	adc	r13, r25
    3f74:	07 ff       	sbrs	r16, 7
    3f76:	ac cf       	rjmp	.-168    	; 0x3ed0 <__clockInit+0x58>
    3f78:	a1 14       	cp	r10, r1
    3f7a:	b1 04       	cpc	r11, r1
    3f7c:	09 f4       	brne	.+2      	; 0x3f80 <__clockInit+0x108>
    3f7e:	87 c0       	rjmp	.+270    	; 0x408e <__clockInit+0x216>
    3f80:	e6 e0       	ldi	r30, 0x06	; 6
    3f82:	f0 e0       	ldi	r31, 0x00	; 0
    3f84:	ae 0e       	add	r10, r30
    3f86:	bf 1e       	adc	r11, r31
    3f88:	f5 01       	movw	r30, r10
    3f8a:	84 91       	lpm	r24, Z+
    3f8c:	2a ef       	ldi	r18, 0xFA	; 250
    3f8e:	3f ef       	ldi	r19, 0xFF	; 255
    3f90:	a2 0e       	add	r10, r18
    3f92:	b3 1e       	adc	r11, r19
    3f94:	88 23       	and	r24, r24
    3f96:	31 f4       	brne	.+12     	; 0x3fa4 <__clockInit+0x12c>
    3f98:	ef ef       	ldi	r30, 0xFF	; 255
    3f9a:	ce 2e       	mov	r12, r30
    3f9c:	d1 2c       	mov	r13, r1
    3f9e:	e1 2c       	mov	r14, r1
    3fa0:	f1 2c       	mov	r15, r1
    3fa2:	06 c0       	rjmp	.+12     	; 0x3fb0 <__clockInit+0x138>
    3fa4:	7f ef       	ldi	r23, 0xFF	; 255
    3fa6:	c7 2e       	mov	r12, r23
    3fa8:	7f ef       	ldi	r23, 0xFF	; 255
    3faa:	d7 2e       	mov	r13, r23
    3fac:	e1 2c       	mov	r14, r1
    3fae:	f1 2c       	mov	r15, r1
    3fb0:	6c e0       	ldi	r22, 0x0C	; 12
    3fb2:	86 2e       	mov	r8, r22
    3fb4:	91 2c       	mov	r9, r1
    3fb6:	21 01       	movw	r4, r2
    3fb8:	66 24       	eor	r6, r6
    3fba:	77 24       	eor	r7, r7
    3fbc:	61 e0       	ldi	r22, 0x01	; 1
    3fbe:	70 e0       	ldi	r23, 0x00	; 0
    3fc0:	80 e0       	ldi	r24, 0x00	; 0
    3fc2:	90 e0       	ldi	r25, 0x00	; 0
    3fc4:	49 81       	ldd	r20, Y+1	; 0x01
    3fc6:	5a 81       	ldd	r21, Y+2	; 0x02
    3fc8:	0e 94 c0 18 	call	0x3180	; 0x3180 <ticks_per_ms>
    3fcc:	6f 5f       	subi	r22, 0xFF	; 255
    3fce:	7f 4f       	sbci	r23, 0xFF	; 255
    3fd0:	8f 4f       	sbci	r24, 0xFF	; 255
    3fd2:	9f 4f       	sbci	r25, 0xFF	; 255
    3fd4:	64 0d       	add	r22, r4
    3fd6:	75 1d       	adc	r23, r5
    3fd8:	86 1d       	adc	r24, r6
    3fda:	97 1d       	adc	r25, r7
    3fdc:	6c 15       	cp	r22, r12
    3fde:	7d 05       	cpc	r23, r13
    3fe0:	8e 05       	cpc	r24, r14
    3fe2:	9f 05       	cpc	r25, r15
    3fe4:	28 f5       	brcc	.+74     	; 0x4030 <__clockInit+0x1b8>
    3fe6:	c4 01       	movw	r24, r8
    3fe8:	01 96       	adiw	r24, 0x01	; 1
    3fea:	9c 83       	std	Y+4, r25	; 0x04
    3fec:	8b 83       	std	Y+3, r24	; 0x03
    3fee:	c5 01       	movw	r24, r10
    3ff0:	6b 81       	ldd	r22, Y+3	; 0x03
    3ff2:	7c 81       	ldd	r23, Y+4	; 0x04
    3ff4:	0e 94 22 1d 	call	0x3a44	; 0x3a44 <timerGetBestPrescaler>
    3ff8:	8c 01       	movw	r16, r24
    3ffa:	eb 81       	ldd	r30, Y+3	; 0x03
    3ffc:	fc 81       	ldd	r31, Y+4	; 0x04
    3ffe:	bf 01       	movw	r22, r30
    4000:	80 e0       	ldi	r24, 0x00	; 0
    4002:	90 e0       	ldi	r25, 0x00	; 0
    4004:	a8 01       	movw	r20, r16
    4006:	0e 94 c0 18 	call	0x3180	; 0x3180 <ticks_per_ms>
    400a:	29 81       	ldd	r18, Y+1	; 0x01
    400c:	3a 81       	ldd	r19, Y+2	; 0x02
    400e:	02 17       	cp	r16, r18
    4010:	13 07       	cpc	r17, r19
    4012:	71 f4       	brne	.+28     	; 0x4030 <__clockInit+0x1b8>
    4014:	c6 16       	cp	r12, r22
    4016:	d7 06       	cpc	r13, r23
    4018:	e8 06       	cpc	r14, r24
    401a:	f9 06       	cpc	r15, r25
    401c:	48 f0       	brcs	.+18     	; 0x4030 <__clockInit+0x1b8>
    401e:	46 16       	cp	r4, r22
    4020:	57 06       	cpc	r5, r23
    4022:	68 06       	cpc	r6, r24
    4024:	79 06       	cpc	r7, r25
    4026:	20 f4       	brcc	.+8      	; 0x4030 <__clockInit+0x1b8>
    4028:	1b 01       	movw	r2, r22
    402a:	8b 80       	ldd	r8, Y+3	; 0x03
    402c:	9c 80       	ldd	r9, Y+4	; 0x04
    402e:	c3 cf       	rjmp	.-122    	; 0x3fb6 <__clockInit+0x13e>
    4030:	b0 92 f0 03 	sts	0x03F0, r11
    4034:	a0 92 ef 03 	sts	0x03EF, r10
    4038:	b4 01       	movw	r22, r8
    403a:	80 e0       	ldi	r24, 0x00	; 0
    403c:	90 e0       	ldi	r25, 0x00	; 0
    403e:	28 ee       	ldi	r18, 0xE8	; 232
    4040:	33 e0       	ldi	r19, 0x03	; 3
    4042:	40 e0       	ldi	r20, 0x00	; 0
    4044:	50 e0       	ldi	r21, 0x00	; 0
    4046:	0e 94 b6 27 	call	0x4f6c	; 0x4f6c <__mulsi3>
    404a:	60 93 1a 01 	sts	0x011A, r22
    404e:	70 93 1b 01 	sts	0x011B, r23
    4052:	80 93 1c 01 	sts	0x011C, r24
    4056:	90 93 1d 01 	sts	0x011D, r25
    405a:	c5 01       	movw	r24, r10
    405c:	69 81       	ldd	r22, Y+1	; 0x01
    405e:	7a 81       	ldd	r23, Y+2	; 0x02
    4060:	0e 94 82 1d 	call	0x3b04	; 0x3b04 <timerSetPrescaler>
    4064:	80 91 ef 03 	lds	r24, 0x03EF
    4068:	90 91 f0 03 	lds	r25, 0x03F0
    406c:	64 e0       	ldi	r22, 0x04	; 4
    406e:	0e 94 11 1e 	call	0x3c22	; 0x3c22 <timerSetMode>
    4072:	e0 91 ef 03 	lds	r30, 0x03EF
    4076:	f0 91 f0 03 	lds	r31, 0x03F0
    407a:	77 96       	adiw	r30, 0x17	; 23
    407c:	85 91       	lpm	r24, Z+
    407e:	94 91       	lpm	r25, Z+
    4080:	6e e0       	ldi	r22, 0x0E	; 14
    4082:	79 e1       	ldi	r23, 0x19	; 25
    4084:	a1 01       	movw	r20, r2
    4086:	20 e0       	ldi	r18, 0x00	; 0
    4088:	30 e0       	ldi	r19, 0x00	; 0
    408a:	0e 94 d6 1e 	call	0x3dac	; 0x3dac <compareAttach>
    408e:	80 91 ea 03 	lds	r24, 0x03EA
    4092:	88 23       	and	r24, r24
    4094:	61 f0       	breq	.+24     	; 0x40ae <__clockInit+0x236>
    4096:	10 92 ea 03 	sts	0x03EA, r1
    409a:	0e 94 69 1b 	call	0x36d2	; 0x36d2 <setError>
    409e:	07 c0       	rjmp	.+14     	; 0x40ae <__clockInit+0x236>
    40a0:	f6 01       	movw	r30, r12
    40a2:	39 96       	adiw	r30, 0x09	; 9
    40a4:	85 91       	lpm	r24, Z+
    40a6:	94 91       	lpm	r25, Z+
    40a8:	84 fd       	sbrc	r24, 4
    40aa:	1f cf       	rjmp	.-450    	; 0x3eea <__clockInit+0x72>
    40ac:	5e cf       	rjmp	.-324    	; 0x3f6a <__clockInit+0xf2>
    40ae:	0f 90       	pop	r0
    40b0:	0f 90       	pop	r0
    40b2:	0f 90       	pop	r0
    40b4:	0f 90       	pop	r0
    40b6:	cf 91       	pop	r28
    40b8:	df 91       	pop	r29
    40ba:	1f 91       	pop	r17
    40bc:	0f 91       	pop	r16
    40be:	ff 90       	pop	r15
    40c0:	ef 90       	pop	r14
    40c2:	df 90       	pop	r13
    40c4:	cf 90       	pop	r12
    40c6:	bf 90       	pop	r11
    40c8:	af 90       	pop	r10
    40ca:	9f 90       	pop	r9
    40cc:	8f 90       	pop	r8
    40ce:	7f 90       	pop	r7
    40d0:	6f 90       	pop	r6
    40d2:	5f 90       	pop	r5
    40d4:	4f 90       	pop	r4
    40d6:	3f 90       	pop	r3
    40d8:	2f 90       	pop	r2
    40da:	08 95       	ret

000040dc <clockHasElapsedGetOverflow>:
    40dc:	8f 92       	push	r8
    40de:	9f 92       	push	r9
    40e0:	af 92       	push	r10
    40e2:	bf 92       	push	r11
    40e4:	cf 92       	push	r12
    40e6:	df 92       	push	r13
    40e8:	ef 92       	push	r14
    40ea:	ff 92       	push	r15
    40ec:	0f 93       	push	r16
    40ee:	1f 93       	push	r17
    40f0:	cf 93       	push	r28
    40f2:	df 93       	push	r29
    40f4:	6b 01       	movw	r12, r22
    40f6:	7c 01       	movw	r14, r24
    40f8:	49 01       	movw	r8, r18
    40fa:	5a 01       	movw	r10, r20
    40fc:	e8 01       	movw	r28, r16
    40fe:	0e 94 62 1b 	call	0x36c4	; 0x36c4 <clockGetus>
    4102:	6c 19       	sub	r22, r12
    4104:	7d 09       	sbc	r23, r13
    4106:	8e 09       	sbc	r24, r14
    4108:	9f 09       	sbc	r25, r15
    410a:	86 16       	cp	r8, r22
    410c:	97 06       	cpc	r9, r23
    410e:	a8 06       	cpc	r10, r24
    4110:	b9 06       	cpc	r11, r25
    4112:	50 f4       	brcc	.+20     	; 0x4128 <clockHasElapsedGetOverflow+0x4c>
    4114:	68 19       	sub	r22, r8
    4116:	79 09       	sbc	r23, r9
    4118:	8a 09       	sbc	r24, r10
    411a:	9b 09       	sbc	r25, r11
    411c:	68 83       	st	Y, r22
    411e:	79 83       	std	Y+1, r23	; 0x01
    4120:	8a 83       	std	Y+2, r24	; 0x02
    4122:	9b 83       	std	Y+3, r25	; 0x03
    4124:	8f ef       	ldi	r24, 0xFF	; 255
    4126:	09 c0       	rjmp	.+18     	; 0x413a <clockHasElapsedGetOverflow+0x5e>
    4128:	86 1a       	sub	r8, r22
    412a:	97 0a       	sbc	r9, r23
    412c:	a8 0a       	sbc	r10, r24
    412e:	b9 0a       	sbc	r11, r25
    4130:	88 82       	st	Y, r8
    4132:	99 82       	std	Y+1, r9	; 0x01
    4134:	aa 82       	std	Y+2, r10	; 0x02
    4136:	bb 82       	std	Y+3, r11	; 0x03
    4138:	80 e0       	ldi	r24, 0x00	; 0
    413a:	df 91       	pop	r29
    413c:	cf 91       	pop	r28
    413e:	1f 91       	pop	r17
    4140:	0f 91       	pop	r16
    4142:	ff 90       	pop	r15
    4144:	ef 90       	pop	r14
    4146:	df 90       	pop	r13
    4148:	cf 90       	pop	r12
    414a:	bf 90       	pop	r11
    414c:	af 90       	pop	r10
    414e:	9f 90       	pop	r9
    4150:	8f 90       	pop	r8
    4152:	08 95       	ret

00004154 <clockWaitus>:
    4154:	af 92       	push	r10
    4156:	bf 92       	push	r11
    4158:	cf 92       	push	r12
    415a:	df 92       	push	r13
    415c:	ef 92       	push	r14
    415e:	ff 92       	push	r15
    4160:	0f 93       	push	r16
    4162:	1f 93       	push	r17
    4164:	5b 01       	movw	r10, r22
    4166:	6c 01       	movw	r12, r24
    4168:	0e 94 62 1b 	call	0x36c4	; 0x36c4 <clockGetus>
    416c:	7b 01       	movw	r14, r22
    416e:	8c 01       	movw	r16, r24
    4170:	01 c0       	rjmp	.+2      	; 0x4174 <clockWaitus+0x20>
    4172:	00 00       	nop
    4174:	0e 94 62 1b 	call	0x36c4	; 0x36c4 <clockGetus>
    4178:	6e 19       	sub	r22, r14
    417a:	7f 09       	sbc	r23, r15
    417c:	80 0b       	sbc	r24, r16
    417e:	91 0b       	sbc	r25, r17
    4180:	6a 15       	cp	r22, r10
    4182:	7b 05       	cpc	r23, r11
    4184:	8c 05       	cpc	r24, r12
    4186:	9d 05       	cpc	r25, r13
    4188:	a0 f3       	brcs	.-24     	; 0x4172 <clockWaitus+0x1e>
    418a:	1f 91       	pop	r17
    418c:	0f 91       	pop	r16
    418e:	ff 90       	pop	r15
    4190:	ef 90       	pop	r14
    4192:	df 90       	pop	r13
    4194:	cf 90       	pop	r12
    4196:	bf 90       	pop	r11
    4198:	af 90       	pop	r10
    419a:	08 95       	ret

0000419c <clockWaitms>:
    419c:	28 ee       	ldi	r18, 0xE8	; 232
    419e:	33 e0       	ldi	r19, 0x03	; 3
    41a0:	40 e0       	ldi	r20, 0x00	; 0
    41a2:	50 e0       	ldi	r21, 0x00	; 0
    41a4:	0e 94 b6 27 	call	0x4f6c	; 0x4f6c <__mulsi3>
    41a8:	0e 94 aa 20 	call	0x4154	; 0x4154 <clockWaitus>
    41ac:	08 95       	ret

000041ae <delay_ms>:
    41ae:	9b 01       	movw	r18, r22
    41b0:	ac 01       	movw	r20, r24
    41b2:	80 91 ef 03 	lds	r24, 0x03EF
    41b6:	90 91 f0 03 	lds	r25, 0x03F0
    41ba:	89 2b       	or	r24, r25
    41bc:	29 f0       	breq	.+10     	; 0x41c8 <delay_ms+0x1a>
    41be:	ca 01       	movw	r24, r20
    41c0:	b9 01       	movw	r22, r18
    41c2:	0e 94 ce 20 	call	0x419c	; 0x419c <clockWaitms>
    41c6:	08 95       	ret
    41c8:	ca 01       	movw	r24, r20
    41ca:	b9 01       	movw	r22, r18
    41cc:	41 e0       	ldi	r20, 0x01	; 1
    41ce:	50 e0       	ldi	r21, 0x00	; 0
    41d0:	0e 94 c0 18 	call	0x3180	; 0x3180 <ticks_per_ms>
    41d4:	0e 94 da 18 	call	0x31b4	; 0x31b4 <delay_cycles>
    41d8:	08 95       	ret

000041da <delay_us>:
    41da:	9b 01       	movw	r18, r22
    41dc:	ac 01       	movw	r20, r24
    41de:	80 91 ef 03 	lds	r24, 0x03EF
    41e2:	90 91 f0 03 	lds	r25, 0x03F0
    41e6:	89 2b       	or	r24, r25
    41e8:	51 f0       	breq	.+20     	; 0x41fe <delay_us+0x24>
    41ea:	25 36       	cpi	r18, 0x65	; 101
    41ec:	31 05       	cpc	r19, r1
    41ee:	41 05       	cpc	r20, r1
    41f0:	51 05       	cpc	r21, r1
    41f2:	28 f0       	brcs	.+10     	; 0x41fe <delay_us+0x24>
    41f4:	ca 01       	movw	r24, r20
    41f6:	b9 01       	movw	r22, r18
    41f8:	0e 94 aa 20 	call	0x4154	; 0x4154 <clockWaitus>
    41fc:	08 95       	ret
    41fe:	ca 01       	movw	r24, r20
    4200:	b9 01       	movw	r22, r18
    4202:	48 ee       	ldi	r20, 0xE8	; 232
    4204:	53 e0       	ldi	r21, 0x03	; 3
    4206:	0e 94 c0 18 	call	0x3180	; 0x3180 <ticks_per_ms>
    420a:	0e 94 da 18 	call	0x31b4	; 0x31b4 <delay_cycles>
    420e:	08 95       	ret

00004210 <clockHasElapsed>:
    4210:	af 92       	push	r10
    4212:	bf 92       	push	r11
    4214:	cf 92       	push	r12
    4216:	df 92       	push	r13
    4218:	ef 92       	push	r14
    421a:	ff 92       	push	r15
    421c:	0f 93       	push	r16
    421e:	1f 93       	push	r17
    4220:	7b 01       	movw	r14, r22
    4222:	8c 01       	movw	r16, r24
    4224:	59 01       	movw	r10, r18
    4226:	6a 01       	movw	r12, r20
    4228:	0e 94 62 1b 	call	0x36c4	; 0x36c4 <clockGetus>
    422c:	6e 19       	sub	r22, r14
    422e:	7f 09       	sbc	r23, r15
    4230:	80 0b       	sbc	r24, r16
    4232:	91 0b       	sbc	r25, r17
    4234:	6a 15       	cp	r22, r10
    4236:	7b 05       	cpc	r23, r11
    4238:	8c 05       	cpc	r24, r12
    423a:	9d 05       	cpc	r25, r13
    423c:	10 f4       	brcc	.+4      	; 0x4242 <clockHasElapsed+0x32>
    423e:	80 e0       	ldi	r24, 0x00	; 0
    4240:	01 c0       	rjmp	.+2      	; 0x4244 <clockHasElapsed+0x34>
    4242:	8f ef       	ldi	r24, 0xFF	; 255
    4244:	1f 91       	pop	r17
    4246:	0f 91       	pop	r16
    4248:	ff 90       	pop	r15
    424a:	ef 90       	pop	r14
    424c:	df 90       	pop	r13
    424e:	cf 90       	pop	r12
    4250:	bf 90       	pop	r11
    4252:	af 90       	pop	r10
    4254:	08 95       	ret

00004256 <timerCaptureDetach>:
    4256:	ef 92       	push	r14
    4258:	ff 92       	push	r15
    425a:	0f 93       	push	r16
    425c:	1f 93       	push	r17
    425e:	8c 01       	movw	r16, r24
    4260:	fc 01       	movw	r30, r24
    4262:	e5 90       	lpm	r14, Z+
    4264:	f4 90       	lpm	r15, Z+
    4266:	81 96       	adiw	r24, 0x21	; 33
    4268:	0e 94 6b 11 	call	0x22d6	; 0x22d6 <__portMaskClear>
    426c:	c8 01       	movw	r24, r16
    426e:	84 96       	adiw	r24, 0x24	; 36
    4270:	0e 94 52 11 	call	0x22a4	; 0x22a4 <__portMaskSet>
    4274:	f7 01       	movw	r30, r14
    4276:	17 82       	std	Z+7, r1	; 0x07
    4278:	16 82       	std	Z+6, r1	; 0x06
    427a:	1f 91       	pop	r17
    427c:	0f 91       	pop	r16
    427e:	ff 90       	pop	r15
    4280:	ef 90       	pop	r14
    4282:	08 95       	ret

00004284 <timerCaptureAttach>:
    4284:	af 92       	push	r10
    4286:	bf 92       	push	r11
    4288:	cf 92       	push	r12
    428a:	df 92       	push	r13
    428c:	ef 92       	push	r14
    428e:	ff 92       	push	r15
    4290:	0f 93       	push	r16
    4292:	1f 93       	push	r17
    4294:	cf 93       	push	r28
    4296:	df 93       	push	r29
    4298:	8c 01       	movw	r16, r24
    429a:	7b 01       	movw	r14, r22
    429c:	6a 01       	movw	r12, r20
    429e:	b2 2e       	mov	r11, r18
    42a0:	fc 01       	movw	r30, r24
    42a2:	c5 91       	lpm	r28, Z+
    42a4:	d4 91       	lpm	r29, Z+
    42a6:	8e 81       	ldd	r24, Y+6	; 0x06
    42a8:	9f 81       	ldd	r25, Y+7	; 0x07
    42aa:	89 2b       	or	r24, r25
    42ac:	19 f0       	breq	.+6      	; 0x42b4 <timerCaptureAttach+0x30>
    42ae:	8a ee       	ldi	r24, 0xEA	; 234
    42b0:	0e 94 69 1b 	call	0x36d2	; 0x36d2 <setError>
    42b4:	af b6       	in	r10, 0x3f	; 63
    42b6:	f8 94       	cli
    42b8:	ff 82       	std	Y+7, r15	; 0x07
    42ba:	ee 82       	std	Y+6, r14	; 0x06
    42bc:	d9 86       	std	Y+9, r13	; 0x09
    42be:	c8 86       	std	Y+8, r12	; 0x08
    42c0:	c8 01       	movw	r24, r16
    42c2:	87 96       	adiw	r24, 0x27	; 39
    42c4:	bb 20       	and	r11, r11
    42c6:	19 f0       	breq	.+6      	; 0x42ce <timerCaptureAttach+0x4a>
    42c8:	0e 94 52 11 	call	0x22a4	; 0x22a4 <__portMaskSet>
    42cc:	02 c0       	rjmp	.+4      	; 0x42d2 <timerCaptureAttach+0x4e>
    42ce:	0e 94 6b 11 	call	0x22d6	; 0x22d6 <__portMaskClear>
    42d2:	c8 01       	movw	r24, r16
    42d4:	84 96       	adiw	r24, 0x24	; 36
    42d6:	0e 94 52 11 	call	0x22a4	; 0x22a4 <__portMaskSet>
    42da:	c8 01       	movw	r24, r16
    42dc:	81 96       	adiw	r24, 0x21	; 33
    42de:	0e 94 52 11 	call	0x22a4	; 0x22a4 <__portMaskSet>
    42e2:	af be       	out	0x3f, r10	; 63
    42e4:	df 91       	pop	r29
    42e6:	cf 91       	pop	r28
    42e8:	1f 91       	pop	r17
    42ea:	0f 91       	pop	r16
    42ec:	ff 90       	pop	r15
    42ee:	ef 90       	pop	r14
    42f0:	df 90       	pop	r13
    42f2:	cf 90       	pop	r12
    42f4:	bf 90       	pop	r11
    42f6:	af 90       	pop	r10
    42f8:	08 95       	ret

000042fa <compareIsInUse>:
    42fa:	9c 01       	movw	r18, r24
    42fc:	fc 01       	movw	r30, r24
    42fe:	a5 91       	lpm	r26, Z+
    4300:	b4 91       	lpm	r27, Z+
    4302:	8d 91       	ld	r24, X+
    4304:	9c 91       	ld	r25, X
    4306:	89 2b       	or	r24, r25
    4308:	11 f5       	brne	.+68     	; 0x434e <compareIsInUse+0x54>
    430a:	2e 5f       	subi	r18, 0xFE	; 254
    430c:	3f 4f       	sbci	r19, 0xFF	; 255
    430e:	f9 01       	movw	r30, r18
    4310:	94 91       	lpm	r25, Z+
    4312:	22 50       	subi	r18, 0x02	; 2
    4314:	30 40       	sbci	r19, 0x00	; 0
    4316:	8c e2       	ldi	r24, 0x2C	; 44
    4318:	98 9f       	mul	r25, r24
    431a:	b0 01       	movw	r22, r0
    431c:	11 24       	eor	r1, r1
    431e:	62 5f       	subi	r22, 0xF2	; 242
    4320:	7e 4f       	sbci	r23, 0xFE	; 254
    4322:	ab 01       	movw	r20, r22
    4324:	49 5e       	subi	r20, 0xE9	; 233
    4326:	5f 4f       	sbci	r21, 0xFF	; 255
    4328:	fa 01       	movw	r30, r20
    432a:	85 91       	lpm	r24, Z+
    432c:	94 91       	lpm	r25, Z+
    432e:	28 17       	cp	r18, r24
    4330:	39 07       	cpc	r19, r25
    4332:	79 f4       	brne	.+30     	; 0x4352 <compareIsInUse+0x58>
    4334:	fb 01       	movw	r30, r22
    4336:	a5 91       	lpm	r26, Z+
    4338:	b4 91       	lpm	r27, Z+
    433a:	1a 96       	adiw	r26, 0x0a	; 10
    433c:	8c 91       	ld	r24, X
    433e:	84 30       	cpi	r24, 0x04	; 4
    4340:	31 f0       	breq	.+12     	; 0x434e <compareIsInUse+0x54>
    4342:	89 30       	cpi	r24, 0x09	; 9
    4344:	21 f0       	breq	.+8      	; 0x434e <compareIsInUse+0x54>
    4346:	8b 30       	cpi	r24, 0x0B	; 11
    4348:	11 f0       	breq	.+4      	; 0x434e <compareIsInUse+0x54>
    434a:	8f 30       	cpi	r24, 0x0F	; 15
    434c:	11 f4       	brne	.+4      	; 0x4352 <compareIsInUse+0x58>
    434e:	8f ef       	ldi	r24, 0xFF	; 255
    4350:	08 95       	ret
    4352:	80 e0       	ldi	r24, 0x00	; 0
    4354:	08 95       	ret

00004356 <compareFromIOPin>:
    4356:	bf 92       	push	r11
    4358:	cf 92       	push	r12
    435a:	df 92       	push	r13
    435c:	ef 92       	push	r14
    435e:	ff 92       	push	r15
    4360:	0f 93       	push	r16
    4362:	1f 93       	push	r17
    4364:	cf 93       	push	r28
    4366:	df 93       	push	r29
    4368:	6c 01       	movw	r12, r24
    436a:	b0 90 6a 00 	lds	r11, 0x006A
    436e:	2e e0       	ldi	r18, 0x0E	; 14
    4370:	31 e0       	ldi	r19, 0x01	; 1
    4372:	90 e0       	ldi	r25, 0x00	; 0
    4374:	c0 e0       	ldi	r28, 0x00	; 0
    4376:	d0 e0       	ldi	r29, 0x00	; 0
    4378:	2d c0       	rjmp	.+90     	; 0x43d4 <compareFromIOPin+0x7e>
    437a:	28 5f       	subi	r18, 0xF8	; 248
    437c:	3f 4f       	sbci	r19, 0xFF	; 255
    437e:	f9 01       	movw	r30, r18
    4380:	e4 90       	lpm	r14, Z+
    4382:	28 50       	subi	r18, 0x08	; 8
    4384:	30 40       	sbci	r19, 0x00	; 0
    4386:	f9 01       	movw	r30, r18
    4388:	77 96       	adiw	r30, 0x17	; 23
    438a:	2a 5f       	subi	r18, 0xFA	; 250
    438c:	3f 4f       	sbci	r19, 0xFF	; 255
    438e:	80 e0       	ldi	r24, 0x00	; 0
    4390:	a0 e0       	ldi	r26, 0x00	; 0
    4392:	b0 e0       	ldi	r27, 0x00	; 0
    4394:	05 91       	lpm	r16, Z+
    4396:	14 91       	lpm	r17, Z+
    4398:	f9 01       	movw	r30, r18
    439a:	f4 90       	lpm	r15, Z+
    439c:	26 50       	subi	r18, 0x06	; 6
    439e:	30 40       	sbci	r19, 0x00	; 0
    43a0:	14 c0       	rjmp	.+40     	; 0x43ca <compareFromIOPin+0x74>
    43a2:	b8 01       	movw	r22, r16
    43a4:	6a 0f       	add	r22, r26
    43a6:	7b 1f       	adc	r23, r27
    43a8:	fb 01       	movw	r30, r22
    43aa:	3e 96       	adiw	r30, 0x0e	; 14
    43ac:	45 91       	lpm	r20, Z+
    43ae:	54 91       	lpm	r21, Z+
    43b0:	41 15       	cp	r20, r1
    43b2:	51 05       	cpc	r21, r1
    43b4:	41 f0       	breq	.+16     	; 0x43c6 <compareFromIOPin+0x70>
    43b6:	4c 15       	cp	r20, r12
    43b8:	5d 05       	cpc	r21, r13
    43ba:	29 f4       	brne	.+10     	; 0x43c6 <compareFromIOPin+0x70>
    43bc:	ff 20       	and	r15, r15
    43be:	11 f0       	breq	.+4      	; 0x43c4 <compareFromIOPin+0x6e>
    43c0:	eb 01       	movw	r28, r22
    43c2:	0a c0       	rjmp	.+20     	; 0x43d8 <compareFromIOPin+0x82>
    43c4:	eb 01       	movw	r28, r22
    43c6:	8f 5f       	subi	r24, 0xFF	; 255
    43c8:	50 96       	adiw	r26, 0x10	; 16
    43ca:	8e 15       	cp	r24, r14
    43cc:	50 f3       	brcs	.-44     	; 0x43a2 <compareFromIOPin+0x4c>
    43ce:	9f 5f       	subi	r25, 0xFF	; 255
    43d0:	24 5d       	subi	r18, 0xD4	; 212
    43d2:	3f 4f       	sbci	r19, 0xFF	; 255
    43d4:	9b 15       	cp	r25, r11
    43d6:	88 f2       	brcs	.-94     	; 0x437a <compareFromIOPin+0x24>
    43d8:	ce 01       	movw	r24, r28
    43da:	df 91       	pop	r29
    43dc:	cf 91       	pop	r28
    43de:	1f 91       	pop	r17
    43e0:	0f 91       	pop	r16
    43e2:	ff 90       	pop	r15
    43e4:	ef 90       	pop	r14
    43e6:	df 90       	pop	r13
    43e8:	cf 90       	pop	r12
    43ea:	bf 90       	pop	r11
    43ec:	08 95       	ret

000043ee <timerOverflowAttach>:
    43ee:	df 92       	push	r13
    43f0:	ef 92       	push	r14
    43f2:	ff 92       	push	r15
    43f4:	0f 93       	push	r16
    43f6:	1f 93       	push	r17
    43f8:	cf 93       	push	r28
    43fa:	df 93       	push	r29
    43fc:	ec 01       	movw	r28, r24
    43fe:	8b 01       	movw	r16, r22
    4400:	7a 01       	movw	r14, r20
    4402:	df b6       	in	r13, 0x3f	; 63
    4404:	f8 94       	cli
    4406:	61 15       	cp	r22, r1
    4408:	71 05       	cpc	r23, r1
    440a:	61 f0       	breq	.+24     	; 0x4424 <timerOverflowAttach+0x36>
    440c:	fc 01       	movw	r30, r24
    440e:	a5 91       	lpm	r26, Z+
    4410:	b4 91       	lpm	r27, Z+
    4412:	12 96       	adiw	r26, 0x02	; 2
    4414:	8d 91       	ld	r24, X+
    4416:	9c 91       	ld	r25, X
    4418:	13 97       	sbiw	r26, 0x03	; 3
    441a:	89 2b       	or	r24, r25
    441c:	19 f0       	breq	.+6      	; 0x4424 <timerOverflowAttach+0x36>
    441e:	8c ef       	ldi	r24, 0xFC	; 252
    4420:	0e 94 69 1b 	call	0x36d2	; 0x36d2 <setError>
    4424:	ce 01       	movw	r24, r28
    4426:	fe 01       	movw	r30, r28
    4428:	a5 91       	lpm	r26, Z+
    442a:	b4 91       	lpm	r27, Z+
    442c:	13 96       	adiw	r26, 0x03	; 3
    442e:	1c 93       	st	X, r17
    4430:	0e 93       	st	-X, r16
    4432:	12 97       	sbiw	r26, 0x02	; 2
    4434:	15 96       	adiw	r26, 0x05	; 5
    4436:	fc 92       	st	X, r15
    4438:	ee 92       	st	-X, r14
    443a:	14 97       	sbiw	r26, 0x04	; 4
    443c:	49 96       	adiw	r24, 0x19	; 25
    443e:	01 2b       	or	r16, r17
    4440:	19 f0       	breq	.+6      	; 0x4448 <timerOverflowAttach+0x5a>
    4442:	0e 94 52 11 	call	0x22a4	; 0x22a4 <__portMaskSet>
    4446:	02 c0       	rjmp	.+4      	; 0x444c <timerOverflowAttach+0x5e>
    4448:	0e 94 6b 11 	call	0x22d6	; 0x22d6 <__portMaskClear>
    444c:	df be       	out	0x3f, r13	; 63
    444e:	df 91       	pop	r29
    4450:	cf 91       	pop	r28
    4452:	1f 91       	pop	r17
    4454:	0f 91       	pop	r16
    4456:	ff 90       	pop	r15
    4458:	ef 90       	pop	r14
    445a:	df 90       	pop	r13
    445c:	08 95       	ret

0000445e <__timerPWMGetDeciHertz>:
    445e:	cf 92       	push	r12
    4460:	df 92       	push	r13
    4462:	ef 92       	push	r14
    4464:	ff 92       	push	r15
    4466:	0f 93       	push	r16
    4468:	df 93       	push	r29
    446a:	cf 93       	push	r28
    446c:	00 d0       	rcall	.+0      	; 0x446e <__timerPWMGetDeciHertz+0x10>
    446e:	00 d0       	rcall	.+0      	; 0x4470 <__timerPWMGetDeciHertz+0x12>
    4470:	cd b7       	in	r28, 0x3d	; 61
    4472:	de b7       	in	r29, 0x3e	; 62
    4474:	08 2f       	mov	r16, r24
    4476:	7b 01       	movw	r14, r22
    4478:	d4 2e       	mov	r13, r20
    447a:	c5 2e       	mov	r12, r21
    447c:	60 91 62 00 	lds	r22, 0x0062
    4480:	70 91 63 00 	lds	r23, 0x0063
    4484:	80 91 64 00 	lds	r24, 0x0064
    4488:	90 91 65 00 	lds	r25, 0x0065
    448c:	2a e0       	ldi	r18, 0x0A	; 10
    448e:	30 e0       	ldi	r19, 0x00	; 0
    4490:	40 e0       	ldi	r20, 0x00	; 0
    4492:	50 e0       	ldi	r21, 0x00	; 0
    4494:	0e 94 b6 27 	call	0x4f6c	; 0x4f6c <__mulsi3>
    4498:	97 01       	movw	r18, r14
    449a:	40 e0       	ldi	r20, 0x00	; 0
    449c:	50 e0       	ldi	r21, 0x00	; 0
    449e:	29 83       	std	Y+1, r18	; 0x01
    44a0:	3a 83       	std	Y+2, r19	; 0x02
    44a2:	4b 83       	std	Y+3, r20	; 0x03
    44a4:	5c 83       	std	Y+4, r21	; 0x04
    44a6:	0e 94 08 28 	call	0x5010	; 0x5010 <__udivmodsi4>
    44aa:	b9 01       	movw	r22, r18
    44ac:	fa 01       	movw	r30, r20
    44ae:	06 30       	cpi	r16, 0x06	; 6
    44b0:	e1 f1       	breq	.+120    	; 0x452a <__timerPWMGetDeciHertz+0xcc>
    44b2:	07 30       	cpi	r16, 0x07	; 7
    44b4:	60 f4       	brcc	.+24     	; 0x44ce <__timerPWMGetDeciHertz+0x70>
    44b6:	02 30       	cpi	r16, 0x02	; 2
    44b8:	29 f1       	breq	.+74     	; 0x4504 <__timerPWMGetDeciHertz+0xa6>
    44ba:	03 30       	cpi	r16, 0x03	; 3
    44bc:	18 f4       	brcc	.+6      	; 0x44c4 <__timerPWMGetDeciHertz+0x66>
    44be:	01 30       	cpi	r16, 0x01	; 1
    44c0:	71 f4       	brne	.+28     	; 0x44de <__timerPWMGetDeciHertz+0x80>
    44c2:	15 c0       	rjmp	.+42     	; 0x44ee <__timerPWMGetDeciHertz+0x90>
    44c4:	03 30       	cpi	r16, 0x03	; 3
    44c6:	09 f1       	breq	.+66     	; 0x450a <__timerPWMGetDeciHertz+0xac>
    44c8:	05 30       	cpi	r16, 0x05	; 5
    44ca:	49 f4       	brne	.+18     	; 0x44de <__timerPWMGetDeciHertz+0x80>
    44cc:	0d c0       	rjmp	.+26     	; 0x44e8 <__timerPWMGetDeciHertz+0x8a>
    44ce:	08 30       	cpi	r16, 0x08	; 8
    44d0:	a9 f0       	breq	.+42     	; 0x44fc <__timerPWMGetDeciHertz+0x9e>
    44d2:	08 30       	cpi	r16, 0x08	; 8
    44d4:	68 f1       	brcs	.+90     	; 0x4530 <__timerPWMGetDeciHertz+0xd2>
    44d6:	0a 30       	cpi	r16, 0x0A	; 10
    44d8:	89 f0       	breq	.+34     	; 0x44fc <__timerPWMGetDeciHertz+0x9e>
    44da:	0e 30       	cpi	r16, 0x0E	; 14
    44dc:	59 f0       	breq	.+22     	; 0x44f4 <__timerPWMGetDeciHertz+0x96>
    44de:	20 e0       	ldi	r18, 0x00	; 0
    44e0:	30 e0       	ldi	r19, 0x00	; 0
    44e2:	40 e0       	ldi	r20, 0x00	; 0
    44e4:	50 e0       	ldi	r21, 0x00	; 0
    44e6:	33 c0       	rjmp	.+102    	; 0x454e <__timerPWMGetDeciHertz+0xf0>
    44e8:	2f ef       	ldi	r18, 0xFF	; 255
    44ea:	30 e0       	ldi	r19, 0x00	; 0
    44ec:	23 c0       	rjmp	.+70     	; 0x4534 <__timerPWMGetDeciHertz+0xd6>
    44ee:	2f ef       	ldi	r18, 0xFF	; 255
    44f0:	30 e0       	ldi	r19, 0x00	; 0
    44f2:	0d c0       	rjmp	.+26     	; 0x450e <__timerPWMGetDeciHertz+0xb0>
    44f4:	8d 2d       	mov	r24, r13
    44f6:	9c 2d       	mov	r25, r12
    44f8:	9c 01       	movw	r18, r24
    44fa:	1c c0       	rjmp	.+56     	; 0x4534 <__timerPWMGetDeciHertz+0xd6>
    44fc:	8d 2d       	mov	r24, r13
    44fe:	9c 2d       	mov	r25, r12
    4500:	9c 01       	movw	r18, r24
    4502:	05 c0       	rjmp	.+10     	; 0x450e <__timerPWMGetDeciHertz+0xb0>
    4504:	2f ef       	ldi	r18, 0xFF	; 255
    4506:	31 e0       	ldi	r19, 0x01	; 1
    4508:	02 c0       	rjmp	.+4      	; 0x450e <__timerPWMGetDeciHertz+0xb0>
    450a:	2f ef       	ldi	r18, 0xFF	; 255
    450c:	33 e0       	ldi	r19, 0x03	; 3
    450e:	40 e0       	ldi	r20, 0x00	; 0
    4510:	50 e0       	ldi	r21, 0x00	; 0
    4512:	cf 01       	movw	r24, r30
    4514:	0e 94 08 28 	call	0x5010	; 0x5010 <__udivmodsi4>
    4518:	c9 01       	movw	r24, r18
    451a:	da 01       	movw	r26, r20
    451c:	9c 01       	movw	r18, r24
    451e:	ad 01       	movw	r20, r26
    4520:	56 95       	lsr	r21
    4522:	47 95       	ror	r20
    4524:	37 95       	ror	r19
    4526:	27 95       	ror	r18
    4528:	12 c0       	rjmp	.+36     	; 0x454e <__timerPWMGetDeciHertz+0xf0>
    452a:	2f ef       	ldi	r18, 0xFF	; 255
    452c:	31 e0       	ldi	r19, 0x01	; 1
    452e:	02 c0       	rjmp	.+4      	; 0x4534 <__timerPWMGetDeciHertz+0xd6>
    4530:	2f ef       	ldi	r18, 0xFF	; 255
    4532:	33 e0       	ldi	r19, 0x03	; 3
    4534:	40 e0       	ldi	r20, 0x00	; 0
    4536:	50 e0       	ldi	r21, 0x00	; 0
    4538:	2f 5f       	subi	r18, 0xFF	; 255
    453a:	3f 4f       	sbci	r19, 0xFF	; 255
    453c:	4f 4f       	sbci	r20, 0xFF	; 255
    453e:	5f 4f       	sbci	r21, 0xFF	; 255
    4540:	cf 01       	movw	r24, r30
    4542:	0e 94 08 28 	call	0x5010	; 0x5010 <__udivmodsi4>
    4546:	c9 01       	movw	r24, r18
    4548:	da 01       	movw	r26, r20
    454a:	9c 01       	movw	r18, r24
    454c:	ad 01       	movw	r20, r26
    454e:	b9 01       	movw	r22, r18
    4550:	ca 01       	movw	r24, r20
    4552:	0f 90       	pop	r0
    4554:	0f 90       	pop	r0
    4556:	0f 90       	pop	r0
    4558:	0f 90       	pop	r0
    455a:	cf 91       	pop	r28
    455c:	df 91       	pop	r29
    455e:	0f 91       	pop	r16
    4560:	ff 90       	pop	r15
    4562:	ef 90       	pop	r14
    4564:	df 90       	pop	r13
    4566:	cf 90       	pop	r12
    4568:	08 95       	ret

0000456a <TimerGetPwmDeciHertz>:
    456a:	cf 93       	push	r28
    456c:	df 93       	push	r29
    456e:	9c 01       	movw	r18, r24
    4570:	04 96       	adiw	r24, 0x04	; 4
    4572:	fc 01       	movw	r30, r24
    4574:	a5 91       	lpm	r26, Z+
    4576:	b4 91       	lpm	r27, Z+
    4578:	8c 91       	ld	r24, X
    457a:	90 e0       	ldi	r25, 0x00	; 0
    457c:	87 70       	andi	r24, 0x07	; 7
    457e:	90 70       	andi	r25, 0x00	; 0
    4580:	89 2b       	or	r24, r25
    4582:	29 f4       	brne	.+10     	; 0x458e <TimerGetPwmDeciHertz+0x24>
    4584:	20 e0       	ldi	r18, 0x00	; 0
    4586:	30 e0       	ldi	r19, 0x00	; 0
    4588:	40 e0       	ldi	r20, 0x00	; 0
    458a:	50 e0       	ldi	r21, 0x00	; 0
    458c:	21 c0       	rjmp	.+66     	; 0x45d0 <TimerGetPwmDeciHertz+0x66>
    458e:	f9 01       	movw	r30, r18
    4590:	c5 91       	lpm	r28, Z+
    4592:	d4 91       	lpm	r29, Z+
    4594:	aa 85       	ldd	r26, Y+10	; 0x0a
    4596:	68 81       	ld	r22, Y
    4598:	79 81       	ldd	r23, Y+1	; 0x01
    459a:	81 e0       	ldi	r24, 0x01	; 1
    459c:	90 e0       	ldi	r25, 0x00	; 0
    459e:	0a 2e       	mov	r0, r26
    45a0:	02 c0       	rjmp	.+4      	; 0x45a6 <TimerGetPwmDeciHertz+0x3c>
    45a2:	88 0f       	add	r24, r24
    45a4:	99 1f       	adc	r25, r25
    45a6:	0a 94       	dec	r0
    45a8:	e2 f7       	brpl	.-8      	; 0x45a2 <TimerGetPwmDeciHertz+0x38>
    45aa:	80 70       	andi	r24, 0x00	; 0
    45ac:	95 75       	andi	r25, 0x55	; 85
    45ae:	89 2b       	or	r24, r25
    45b0:	19 f4       	brne	.+6      	; 0x45b8 <TimerGetPwmDeciHertz+0x4e>
    45b2:	40 e0       	ldi	r20, 0x00	; 0
    45b4:	50 e0       	ldi	r21, 0x00	; 0
    45b6:	07 c0       	rjmp	.+14     	; 0x45c6 <TimerGetPwmDeciHertz+0x5c>
    45b8:	c9 01       	movw	r24, r18
    45ba:	4f 96       	adiw	r24, 0x1f	; 31
    45bc:	fc 01       	movw	r30, r24
    45be:	c5 91       	lpm	r28, Z+
    45c0:	d4 91       	lpm	r29, Z+
    45c2:	48 81       	ld	r20, Y
    45c4:	59 81       	ldd	r21, Y+1	; 0x01
    45c6:	8a 2f       	mov	r24, r26
    45c8:	0e 94 2f 22 	call	0x445e	; 0x445e <__timerPWMGetDeciHertz>
    45cc:	9b 01       	movw	r18, r22
    45ce:	ac 01       	movw	r20, r24
    45d0:	b9 01       	movw	r22, r18
    45d2:	ca 01       	movw	r24, r20
    45d4:	df 91       	pop	r29
    45d6:	cf 91       	pop	r28
    45d8:	08 95       	ret

000045da <timerCalcPwm>:
    45da:	2f 92       	push	r2
    45dc:	3f 92       	push	r3
    45de:	4f 92       	push	r4
    45e0:	5f 92       	push	r5
    45e2:	6f 92       	push	r6
    45e4:	7f 92       	push	r7
    45e6:	8f 92       	push	r8
    45e8:	9f 92       	push	r9
    45ea:	af 92       	push	r10
    45ec:	bf 92       	push	r11
    45ee:	cf 92       	push	r12
    45f0:	df 92       	push	r13
    45f2:	ef 92       	push	r14
    45f4:	ff 92       	push	r15
    45f6:	0f 93       	push	r16
    45f8:	1f 93       	push	r17
    45fa:	df 93       	push	r29
    45fc:	cf 93       	push	r28
    45fe:	cd b7       	in	r28, 0x3d	; 61
    4600:	de b7       	in	r29, 0x3e	; 62
    4602:	6e 97       	sbiw	r28, 0x1e	; 30
    4604:	0f b6       	in	r0, 0x3f	; 63
    4606:	f8 94       	cli
    4608:	de bf       	out	0x3e, r29	; 62
    460a:	0f be       	out	0x3f, r0	; 63
    460c:	cd bf       	out	0x3d, r28	; 61
    460e:	3c 01       	movw	r6, r24
    4610:	4a 01       	movw	r8, r20
    4612:	5b 01       	movw	r10, r22
    4614:	3c 87       	std	Y+12, r19	; 0x0c
    4616:	2b 87       	std	Y+11, r18	; 0x0b
    4618:	1e 87       	std	Y+14, r17	; 0x0e
    461a:	0d 87       	std	Y+13, r16	; 0x0d
    461c:	f8 8a       	std	Y+16, r15	; 0x10
    461e:	ef 86       	std	Y+15, r14	; 0x0f
    4620:	da 8a       	std	Y+18, r13	; 0x12
    4622:	c9 8a       	std	Y+17, r12	; 0x11
    4624:	04 96       	adiw	r24, 0x04	; 4
    4626:	fc 01       	movw	r30, r24
    4628:	a5 91       	lpm	r26, Z+
    462a:	b4 91       	lpm	r27, Z+
    462c:	8c 91       	ld	r24, X
    462e:	90 e0       	ldi	r25, 0x00	; 0
    4630:	87 70       	andi	r24, 0x07	; 7
    4632:	90 70       	andi	r25, 0x00	; 0
    4634:	89 2b       	or	r24, r25
    4636:	21 f4       	brne	.+8      	; 0x4640 <timerCalcPwm+0x66>
    4638:	dd 24       	eor	r13, r13
    463a:	ff e0       	ldi	r31, 0x0F	; 15
    463c:	fa 87       	std	Y+10, r31	; 0x0a
    463e:	07 c0       	rjmp	.+14     	; 0x464e <timerCalcPwm+0x74>
    4640:	f3 01       	movw	r30, r6
    4642:	a5 91       	lpm	r26, Z+
    4644:	b4 91       	lpm	r27, Z+
    4646:	1a 96       	adiw	r26, 0x0a	; 10
    4648:	fc 91       	ld	r31, X
    464a:	fa 87       	std	Y+10, r31	; 0x0a
    464c:	df 2e       	mov	r13, r31
    464e:	e0 90 62 00 	lds	r14, 0x0062
    4652:	f0 90 63 00 	lds	r15, 0x0063
    4656:	00 91 64 00 	lds	r16, 0x0064
    465a:	10 91 65 00 	lds	r17, 0x0065
    465e:	29 e0       	ldi	r18, 0x09	; 9
    4660:	30 e0       	ldi	r19, 0x00	; 0
    4662:	62 0e       	add	r6, r18
    4664:	73 1e       	adc	r7, r19
    4666:	c8 01       	movw	r24, r16
    4668:	b7 01       	movw	r22, r14
    466a:	96 95       	lsr	r25
    466c:	87 95       	ror	r24
    466e:	77 95       	ror	r23
    4670:	67 95       	ror	r22
    4672:	2a e0       	ldi	r18, 0x0A	; 10
    4674:	30 e0       	ldi	r19, 0x00	; 0
    4676:	40 e0       	ldi	r20, 0x00	; 0
    4678:	50 e0       	ldi	r21, 0x00	; 0
    467a:	0e 94 b6 27 	call	0x4f6c	; 0x4f6c <__mulsi3>
    467e:	6f 8b       	std	Y+23, r22	; 0x17
    4680:	78 8f       	std	Y+24, r23	; 0x18
    4682:	89 8f       	std	Y+25, r24	; 0x19
    4684:	9a 8f       	std	Y+26, r25	; 0x1a
    4686:	c8 01       	movw	r24, r16
    4688:	b7 01       	movw	r22, r14
    468a:	0e 94 b6 27 	call	0x4f6c	; 0x4f6c <__mulsi3>
    468e:	6b 8b       	std	Y+19, r22	; 0x13
    4690:	7c 8b       	std	Y+20, r23	; 0x14
    4692:	8d 8b       	std	Y+21, r24	; 0x15
    4694:	9e 8b       	std	Y+22, r25	; 0x16
    4696:	cc 24       	eor	r12, r12
    4698:	1e 82       	std	Y+6, r1	; 0x06
    469a:	1f 82       	std	Y+7, r1	; 0x07
    469c:	18 86       	std	Y+8, r1	; 0x08
    469e:	19 86       	std	Y+9, r1	; 0x09
    46a0:	1d 82       	std	Y+5, r1	; 0x05
    46a2:	1c 82       	std	Y+4, r1	; 0x04
    46a4:	1b 82       	std	Y+3, r1	; 0x03
    46a6:	1a 82       	std	Y+2, r1	; 0x02
    46a8:	19 82       	std	Y+1, r1	; 0x01
    46aa:	f3 01       	movw	r30, r6
    46ac:	45 91       	lpm	r20, Z+
    46ae:	54 91       	lpm	r21, Z+
    46b0:	5c 8f       	std	Y+28, r21	; 0x1c
    46b2:	4b 8f       	std	Y+27, r20	; 0x1b
    46b4:	87 ef       	ldi	r24, 0xF7	; 247
    46b6:	9f ef       	ldi	r25, 0xFF	; 255
    46b8:	68 0e       	add	r6, r24
    46ba:	79 1e       	adc	r7, r25
    46bc:	ab 85       	ldd	r26, Y+11	; 0x0b
    46be:	bc 85       	ldd	r27, Y+12	; 0x0c
    46c0:	1d 01       	movw	r2, r26
    46c2:	44 24       	eor	r4, r4
    46c4:	55 24       	eor	r5, r5
    46c6:	57 c1       	rjmp	.+686    	; 0x4976 <timerCalcPwm+0x39c>
    46c8:	21 e0       	ldi	r18, 0x01	; 1
    46ca:	30 e0       	ldi	r19, 0x00	; 0
    46cc:	0d 2c       	mov	r0, r13
    46ce:	02 c0       	rjmp	.+4      	; 0x46d4 <timerCalcPwm+0xfa>
    46d0:	22 0f       	add	r18, r18
    46d2:	33 1f       	adc	r19, r19
    46d4:	0a 94       	dec	r0
    46d6:	e2 f7       	brpl	.-8      	; 0x46d0 <timerCalcPwm+0xf6>
    46d8:	c9 01       	movw	r24, r18
    46da:	8e 7e       	andi	r24, 0xEE	; 238
    46dc:	9f 7c       	andi	r25, 0xCF	; 207
    46de:	89 2b       	or	r24, r25
    46e0:	09 f4       	brne	.+2      	; 0x46e4 <timerCalcPwm+0x10a>
    46e2:	48 c1       	rjmp	.+656    	; 0x4974 <timerCalcPwm+0x39a>
    46e4:	c9 01       	movw	r24, r18
    46e6:	eb 8d       	ldd	r30, Y+27	; 0x1b
    46e8:	fc 8d       	ldd	r31, Y+28	; 0x1c
    46ea:	8e 23       	and	r24, r30
    46ec:	9f 23       	and	r25, r31
    46ee:	89 2b       	or	r24, r25
    46f0:	09 f4       	brne	.+2      	; 0x46f4 <timerCalcPwm+0x11a>
    46f2:	40 c1       	rjmp	.+640    	; 0x4974 <timerCalcPwm+0x39a>
    46f4:	f6 e0       	ldi	r31, 0x06	; 6
    46f6:	df 16       	cp	r13, r31
    46f8:	09 f1       	breq	.+66     	; 0x473c <timerCalcPwm+0x162>
    46fa:	fd 15       	cp	r31, r13
    46fc:	90 f0       	brcs	.+36     	; 0x4722 <timerCalcPwm+0x148>
    46fe:	22 e0       	ldi	r18, 0x02	; 2
    4700:	d2 16       	cp	r13, r18
    4702:	f9 f0       	breq	.+62     	; 0x4742 <timerCalcPwm+0x168>
    4704:	2d 15       	cp	r18, r13
    4706:	28 f0       	brcs	.+10     	; 0x4712 <timerCalcPwm+0x138>
    4708:	31 e0       	ldi	r19, 0x01	; 1
    470a:	d3 16       	cp	r13, r19
    470c:	09 f0       	breq	.+2      	; 0x4710 <timerCalcPwm+0x136>
    470e:	32 c1       	rjmp	.+612    	; 0x4974 <timerCalcPwm+0x39a>
    4710:	1e c0       	rjmp	.+60     	; 0x474e <timerCalcPwm+0x174>
    4712:	43 e0       	ldi	r20, 0x03	; 3
    4714:	d4 16       	cp	r13, r20
    4716:	f1 f0       	breq	.+60     	; 0x4754 <timerCalcPwm+0x17a>
    4718:	55 e0       	ldi	r21, 0x05	; 5
    471a:	d5 16       	cp	r13, r21
    471c:	09 f0       	breq	.+2      	; 0x4720 <timerCalcPwm+0x146>
    471e:	2a c1       	rjmp	.+596    	; 0x4974 <timerCalcPwm+0x39a>
    4720:	13 c0       	rjmp	.+38     	; 0x4748 <timerCalcPwm+0x16e>
    4722:	88 e0       	ldi	r24, 0x08	; 8
    4724:	d8 16       	cp	r13, r24
    4726:	c9 f0       	breq	.+50     	; 0x475a <timerCalcPwm+0x180>
    4728:	d8 16       	cp	r13, r24
    472a:	88 f1       	brcs	.+98     	; 0x478e <timerCalcPwm+0x1b4>
    472c:	9a e0       	ldi	r25, 0x0A	; 10
    472e:	d9 16       	cp	r13, r25
    4730:	a1 f0       	breq	.+40     	; 0x475a <timerCalcPwm+0x180>
    4732:	ae e0       	ldi	r26, 0x0E	; 14
    4734:	da 16       	cp	r13, r26
    4736:	09 f0       	breq	.+2      	; 0x473a <timerCalcPwm+0x160>
    4738:	1d c1       	rjmp	.+570    	; 0x4974 <timerCalcPwm+0x39a>
    473a:	2c c0       	rjmp	.+88     	; 0x4794 <timerCalcPwm+0x1ba>
    473c:	0f ef       	ldi	r16, 0xFF	; 255
    473e:	11 e0       	ldi	r17, 0x01	; 1
    4740:	2b c0       	rjmp	.+86     	; 0x4798 <timerCalcPwm+0x1be>
    4742:	0f ef       	ldi	r16, 0xFF	; 255
    4744:	11 e0       	ldi	r17, 0x01	; 1
    4746:	0b c0       	rjmp	.+22     	; 0x475e <timerCalcPwm+0x184>
    4748:	0f ef       	ldi	r16, 0xFF	; 255
    474a:	10 e0       	ldi	r17, 0x00	; 0
    474c:	25 c0       	rjmp	.+74     	; 0x4798 <timerCalcPwm+0x1be>
    474e:	0f ef       	ldi	r16, 0xFF	; 255
    4750:	10 e0       	ldi	r17, 0x00	; 0
    4752:	05 c0       	rjmp	.+10     	; 0x475e <timerCalcPwm+0x184>
    4754:	0f ef       	ldi	r16, 0xFF	; 255
    4756:	13 e0       	ldi	r17, 0x03	; 3
    4758:	02 c0       	rjmp	.+4      	; 0x475e <timerCalcPwm+0x184>
    475a:	0f ef       	ldi	r16, 0xFF	; 255
    475c:	1f ef       	ldi	r17, 0xFF	; 255
    475e:	81 14       	cp	r8, r1
    4760:	91 04       	cpc	r9, r1
    4762:	a1 04       	cpc	r10, r1
    4764:	b1 04       	cpc	r11, r1
    4766:	29 f4       	brne	.+10     	; 0x4772 <timerCalcPwm+0x198>
    4768:	6f 89       	ldd	r22, Y+23	; 0x17
    476a:	78 8d       	ldd	r23, Y+24	; 0x18
    476c:	89 8d       	ldd	r24, Y+25	; 0x19
    476e:	9a 8d       	ldd	r25, Y+26	; 0x1a
    4770:	0a c0       	rjmp	.+20     	; 0x4786 <timerCalcPwm+0x1ac>
    4772:	6f 89       	ldd	r22, Y+23	; 0x17
    4774:	78 8d       	ldd	r23, Y+24	; 0x18
    4776:	89 8d       	ldd	r24, Y+25	; 0x19
    4778:	9a 8d       	ldd	r25, Y+26	; 0x1a
    477a:	a5 01       	movw	r20, r10
    477c:	94 01       	movw	r18, r8
    477e:	0e 94 08 28 	call	0x5010	; 0x5010 <__udivmodsi4>
    4782:	b9 01       	movw	r22, r18
    4784:	ca 01       	movw	r24, r20
    4786:	98 01       	movw	r18, r16
    4788:	40 e0       	ldi	r20, 0x00	; 0
    478a:	50 e0       	ldi	r21, 0x00	; 0
    478c:	20 c0       	rjmp	.+64     	; 0x47ce <timerCalcPwm+0x1f4>
    478e:	0f ef       	ldi	r16, 0xFF	; 255
    4790:	13 e0       	ldi	r17, 0x03	; 3
    4792:	02 c0       	rjmp	.+4      	; 0x4798 <timerCalcPwm+0x1be>
    4794:	0f ef       	ldi	r16, 0xFF	; 255
    4796:	1f ef       	ldi	r17, 0xFF	; 255
    4798:	81 14       	cp	r8, r1
    479a:	91 04       	cpc	r9, r1
    479c:	a1 04       	cpc	r10, r1
    479e:	b1 04       	cpc	r11, r1
    47a0:	29 f4       	brne	.+10     	; 0x47ac <timerCalcPwm+0x1d2>
    47a2:	6b 89       	ldd	r22, Y+19	; 0x13
    47a4:	7c 89       	ldd	r23, Y+20	; 0x14
    47a6:	8d 89       	ldd	r24, Y+21	; 0x15
    47a8:	9e 89       	ldd	r25, Y+22	; 0x16
    47aa:	0a c0       	rjmp	.+20     	; 0x47c0 <timerCalcPwm+0x1e6>
    47ac:	6b 89       	ldd	r22, Y+19	; 0x13
    47ae:	7c 89       	ldd	r23, Y+20	; 0x14
    47b0:	8d 89       	ldd	r24, Y+21	; 0x15
    47b2:	9e 89       	ldd	r25, Y+22	; 0x16
    47b4:	a5 01       	movw	r20, r10
    47b6:	94 01       	movw	r18, r8
    47b8:	0e 94 08 28 	call	0x5010	; 0x5010 <__udivmodsi4>
    47bc:	b9 01       	movw	r22, r18
    47be:	ca 01       	movw	r24, r20
    47c0:	98 01       	movw	r18, r16
    47c2:	40 e0       	ldi	r20, 0x00	; 0
    47c4:	50 e0       	ldi	r21, 0x00	; 0
    47c6:	2f 5f       	subi	r18, 0xFF	; 255
    47c8:	3f 4f       	sbci	r19, 0xFF	; 255
    47ca:	4f 4f       	sbci	r20, 0xFF	; 255
    47cc:	5f 4f       	sbci	r21, 0xFF	; 255
    47ce:	0e 94 08 28 	call	0x5010	; 0x5010 <__udivmodsi4>
    47d2:	c9 01       	movw	r24, r18
    47d4:	da 01       	movw	r26, r20
    47d6:	82 30       	cpi	r24, 0x02	; 2
    47d8:	91 05       	cpc	r25, r1
    47da:	a1 05       	cpc	r26, r1
    47dc:	b1 05       	cpc	r27, r1
    47de:	08 f4       	brcc	.+2      	; 0x47e2 <timerCalcPwm+0x208>
    47e0:	05 c1       	rjmp	.+522    	; 0x49ec <timerCalcPwm+0x412>
    47e2:	81 30       	cpi	r24, 0x01	; 1
    47e4:	e4 e0       	ldi	r30, 0x04	; 4
    47e6:	9e 07       	cpc	r25, r30
    47e8:	e0 e0       	ldi	r30, 0x00	; 0
    47ea:	ae 07       	cpc	r26, r30
    47ec:	e0 e0       	ldi	r30, 0x00	; 0
    47ee:	be 07       	cpc	r27, r30
    47f0:	20 f0       	brcs	.+8      	; 0x47fa <timerCalcPwm+0x220>
    47f2:	80 e0       	ldi	r24, 0x00	; 0
    47f4:	94 e0       	ldi	r25, 0x04	; 4
    47f6:	a0 e0       	ldi	r26, 0x00	; 0
    47f8:	b0 e0       	ldi	r27, 0x00	; 0
    47fa:	bc 01       	movw	r22, r24
    47fc:	c3 01       	movw	r24, r6
    47fe:	0e 94 4d 19 	call	0x329a	; 0x329a <timerGetClosestPrescale>
    4802:	81 14       	cp	r8, r1
    4804:	91 04       	cpc	r9, r1
    4806:	a1 04       	cpc	r10, r1
    4808:	b1 04       	cpc	r11, r1
    480a:	39 f4       	brne	.+14     	; 0x481a <timerCalcPwm+0x240>
    480c:	20 e0       	ldi	r18, 0x00	; 0
    480e:	34 e0       	ldi	r19, 0x04	; 4
    4810:	3e 8f       	std	Y+30, r19	; 0x1e
    4812:	2d 8f       	std	Y+29, r18	; 0x1d
    4814:	0f ef       	ldi	r16, 0xFF	; 255
    4816:	1f ef       	ldi	r17, 0xFF	; 255
    4818:	7d c0       	rjmp	.+250    	; 0x4914 <timerCalcPwm+0x33a>
    481a:	3f ef       	ldi	r19, 0xFF	; 255
    481c:	83 16       	cp	r8, r19
    481e:	3f ef       	ldi	r19, 0xFF	; 255
    4820:	93 06       	cpc	r9, r19
    4822:	3f ef       	ldi	r19, 0xFF	; 255
    4824:	a3 06       	cpc	r10, r19
    4826:	3f ef       	ldi	r19, 0xFF	; 255
    4828:	b3 06       	cpc	r11, r19
    482a:	39 f4       	brne	.+14     	; 0x483a <timerCalcPwm+0x260>
    482c:	0b 85       	ldd	r16, Y+11	; 0x0b
    482e:	1c 85       	ldd	r17, Y+12	; 0x0c
    4830:	41 e0       	ldi	r20, 0x01	; 1
    4832:	50 e0       	ldi	r21, 0x00	; 0
    4834:	5e 8f       	std	Y+30, r21	; 0x1e
    4836:	4d 8f       	std	Y+29, r20	; 0x1d
    4838:	6d c0       	rjmp	.+218    	; 0x4914 <timerCalcPwm+0x33a>
    483a:	dc 01       	movw	r26, r24
    483c:	11 97       	sbiw	r26, 0x01	; 1
    483e:	be 8f       	std	Y+30, r27	; 0x1e
    4840:	ad 8f       	std	Y+29, r26	; 0x1d
    4842:	ee 24       	eor	r14, r14
    4844:	ff 24       	eor	r15, r15
    4846:	87 01       	movw	r16, r14
    4848:	ed 8d       	ldd	r30, Y+29	; 0x1d
    484a:	fe 8d       	ldd	r31, Y+30	; 0x1e
    484c:	31 96       	adiw	r30, 0x01	; 1
    484e:	c3 01       	movw	r24, r6
    4850:	bf 01       	movw	r22, r30
    4852:	0e 94 4d 19 	call	0x329a	; 0x329a <timerGetClosestPrescale>
    4856:	9e 8f       	std	Y+30, r25	; 0x1e
    4858:	8d 8f       	std	Y+29, r24	; 0x1d
    485a:	fa e0       	ldi	r31, 0x0A	; 10
    485c:	df 16       	cp	r13, r31
    485e:	31 f0       	breq	.+12     	; 0x486c <timerCalcPwm+0x292>
    4860:	2e e0       	ldi	r18, 0x0E	; 14
    4862:	d2 16       	cp	r13, r18
    4864:	c9 f0       	breq	.+50     	; 0x4898 <timerCalcPwm+0x2be>
    4866:	38 e0       	ldi	r19, 0x08	; 8
    4868:	d3 16       	cp	r13, r19
    486a:	81 f5       	brne	.+96     	; 0x48cc <timerCalcPwm+0x2f2>
    486c:	6f 89       	ldd	r22, Y+23	; 0x17
    486e:	78 8d       	ldd	r23, Y+24	; 0x18
    4870:	89 8d       	ldd	r24, Y+25	; 0x19
    4872:	9a 8d       	ldd	r25, Y+26	; 0x1a
    4874:	a5 01       	movw	r20, r10
    4876:	94 01       	movw	r18, r8
    4878:	0e 94 08 28 	call	0x5010	; 0x5010 <__udivmodsi4>
    487c:	b9 01       	movw	r22, r18
    487e:	ca 01       	movw	r24, r20
    4880:	ad 8d       	ldd	r26, Y+29	; 0x1d
    4882:	be 8d       	ldd	r27, Y+30	; 0x1e
    4884:	9d 01       	movw	r18, r26
    4886:	40 e0       	ldi	r20, 0x00	; 0
    4888:	50 e0       	ldi	r21, 0x00	; 0
    488a:	0e 94 08 28 	call	0x5010	; 0x5010 <__udivmodsi4>
    488e:	c9 01       	movw	r24, r18
    4890:	da 01       	movw	r26, r20
    4892:	7c 01       	movw	r14, r24
    4894:	8d 01       	movw	r16, r26
    4896:	1a c0       	rjmp	.+52     	; 0x48cc <timerCalcPwm+0x2f2>
    4898:	6b 89       	ldd	r22, Y+19	; 0x13
    489a:	7c 89       	ldd	r23, Y+20	; 0x14
    489c:	8d 89       	ldd	r24, Y+21	; 0x15
    489e:	9e 89       	ldd	r25, Y+22	; 0x16
    48a0:	a5 01       	movw	r20, r10
    48a2:	94 01       	movw	r18, r8
    48a4:	0e 94 08 28 	call	0x5010	; 0x5010 <__udivmodsi4>
    48a8:	b9 01       	movw	r22, r18
    48aa:	ca 01       	movw	r24, r20
    48ac:	ed 8d       	ldd	r30, Y+29	; 0x1d
    48ae:	fe 8d       	ldd	r31, Y+30	; 0x1e
    48b0:	9f 01       	movw	r18, r30
    48b2:	40 e0       	ldi	r20, 0x00	; 0
    48b4:	50 e0       	ldi	r21, 0x00	; 0
    48b6:	0e 94 08 28 	call	0x5010	; 0x5010 <__udivmodsi4>
    48ba:	c9 01       	movw	r24, r18
    48bc:	da 01       	movw	r26, r20
    48be:	7c 01       	movw	r14, r24
    48c0:	8d 01       	movw	r16, r26
    48c2:	08 94       	sec
    48c4:	e1 08       	sbc	r14, r1
    48c6:	f1 08       	sbc	r15, r1
    48c8:	01 09       	sbc	r16, r1
    48ca:	11 09       	sbc	r17, r1
    48cc:	2d 8d       	ldd	r18, Y+29	; 0x1d
    48ce:	3e 8d       	ldd	r19, Y+30	; 0x1e
    48d0:	20 50       	subi	r18, 0x00	; 0
    48d2:	34 40       	sbci	r19, 0x04	; 4
    48d4:	48 f4       	brcc	.+18     	; 0x48e8 <timerCalcPwm+0x30e>
    48d6:	d8 01       	movw	r26, r16
    48d8:	c7 01       	movw	r24, r14
    48da:	80 70       	andi	r24, 0x00	; 0
    48dc:	90 70       	andi	r25, 0x00	; 0
    48de:	00 97       	sbiw	r24, 0x00	; 0
    48e0:	a1 05       	cpc	r26, r1
    48e2:	b1 05       	cpc	r27, r1
    48e4:	09 f0       	breq	.+2      	; 0x48e8 <timerCalcPwm+0x30e>
    48e6:	b0 cf       	rjmp	.-160    	; 0x4848 <timerCalcPwm+0x26e>
    48e8:	d8 01       	movw	r26, r16
    48ea:	c7 01       	movw	r24, r14
    48ec:	80 30       	cpi	r24, 0x00	; 0
    48ee:	50 e0       	ldi	r21, 0x00	; 0
    48f0:	95 07       	cpc	r25, r21
    48f2:	51 e0       	ldi	r21, 0x01	; 1
    48f4:	a5 07       	cpc	r26, r21
    48f6:	50 e0       	ldi	r21, 0x00	; 0
    48f8:	b5 07       	cpc	r27, r21
    48fa:	20 f0       	brcs	.+8      	; 0x4904 <timerCalcPwm+0x32a>
    48fc:	8f ef       	ldi	r24, 0xFF	; 255
    48fe:	9f ef       	ldi	r25, 0xFF	; 255
    4900:	a0 e0       	ldi	r26, 0x00	; 0
    4902:	b0 e0       	ldi	r27, 0x00	; 0
    4904:	82 15       	cp	r24, r2
    4906:	93 05       	cpc	r25, r3
    4908:	a4 05       	cpc	r26, r4
    490a:	b5 05       	cpc	r27, r5
    490c:	10 f4       	brcc	.+4      	; 0x4912 <timerCalcPwm+0x338>
    490e:	d2 01       	movw	r26, r4
    4910:	c1 01       	movw	r24, r2
    4912:	8c 01       	movw	r16, r24
    4914:	8d 2d       	mov	r24, r13
    4916:	6d 8d       	ldd	r22, Y+29	; 0x1d
    4918:	7e 8d       	ldd	r23, Y+30	; 0x1e
    491a:	a8 01       	movw	r20, r16
    491c:	0e 94 2f 22 	call	0x445e	; 0x445e <__timerPWMGetDeciHertz>
    4920:	86 16       	cp	r8, r22
    4922:	97 06       	cpc	r9, r23
    4924:	a8 06       	cpc	r10, r24
    4926:	b9 06       	cpc	r11, r25
    4928:	28 f4       	brcc	.+10     	; 0x4934 <timerCalcPwm+0x35a>
    492a:	68 19       	sub	r22, r8
    492c:	79 09       	sbc	r23, r9
    492e:	8a 09       	sbc	r24, r10
    4930:	9b 09       	sbc	r25, r11
    4932:	08 c0       	rjmp	.+16     	; 0x4944 <timerCalcPwm+0x36a>
    4934:	a5 01       	movw	r20, r10
    4936:	94 01       	movw	r18, r8
    4938:	26 1b       	sub	r18, r22
    493a:	37 0b       	sbc	r19, r23
    493c:	48 0b       	sbc	r20, r24
    493e:	59 0b       	sbc	r21, r25
    4940:	ca 01       	movw	r24, r20
    4942:	b9 01       	movw	r22, r18
    4944:	cc 20       	and	r12, r12
    4946:	49 f0       	breq	.+18     	; 0x495a <timerCalcPwm+0x380>
    4948:	2e 81       	ldd	r18, Y+6	; 0x06
    494a:	3f 81       	ldd	r19, Y+7	; 0x07
    494c:	48 85       	ldd	r20, Y+8	; 0x08
    494e:	59 85       	ldd	r21, Y+9	; 0x09
    4950:	62 17       	cp	r22, r18
    4952:	73 07       	cpc	r23, r19
    4954:	84 07       	cpc	r24, r20
    4956:	95 07       	cpc	r25, r21
    4958:	68 f4       	brcc	.+26     	; 0x4974 <timerCalcPwm+0x39a>
    495a:	6e 83       	std	Y+6, r22	; 0x06
    495c:	7f 83       	std	Y+7, r23	; 0x07
    495e:	88 87       	std	Y+8, r24	; 0x08
    4960:	99 87       	std	Y+9, r25	; 0x09
    4962:	dd 82       	std	Y+5, r13	; 0x05
    4964:	4d 8d       	ldd	r20, Y+29	; 0x1d
    4966:	5e 8d       	ldd	r21, Y+30	; 0x1e
    4968:	5c 83       	std	Y+4, r21	; 0x04
    496a:	4b 83       	std	Y+3, r20	; 0x03
    496c:	1a 83       	std	Y+2, r17	; 0x02
    496e:	09 83       	std	Y+1, r16	; 0x01
    4970:	cc 24       	eor	r12, r12
    4972:	ca 94       	dec	r12
    4974:	d3 94       	inc	r13
    4976:	5a 85       	ldd	r21, Y+10	; 0x0a
    4978:	5d 15       	cp	r21, r13
    497a:	08 f0       	brcs	.+2      	; 0x497e <timerCalcPwm+0x3a4>
    497c:	a5 ce       	rjmp	.-694    	; 0x46c8 <timerCalcPwm+0xee>
    497e:	cc 20       	and	r12, r12
    4980:	d9 f0       	breq	.+54     	; 0x49b8 <timerCalcPwm+0x3de>
    4982:	8d 85       	ldd	r24, Y+13	; 0x0d
    4984:	9e 85       	ldd	r25, Y+14	; 0x0e
    4986:	00 97       	sbiw	r24, 0x00	; 0
    4988:	19 f0       	breq	.+6      	; 0x4990 <timerCalcPwm+0x3b6>
    498a:	ed 81       	ldd	r30, Y+5	; 0x05
    498c:	dc 01       	movw	r26, r24
    498e:	ec 93       	st	X, r30
    4990:	2f 85       	ldd	r18, Y+15	; 0x0f
    4992:	38 89       	ldd	r19, Y+16	; 0x10
    4994:	21 15       	cp	r18, r1
    4996:	31 05       	cpc	r19, r1
    4998:	29 f0       	breq	.+10     	; 0x49a4 <timerCalcPwm+0x3ca>
    499a:	e9 81       	ldd	r30, Y+1	; 0x01
    499c:	fa 81       	ldd	r31, Y+2	; 0x02
    499e:	d9 01       	movw	r26, r18
    49a0:	ed 93       	st	X+, r30
    49a2:	fc 93       	st	X, r31
    49a4:	29 89       	ldd	r18, Y+17	; 0x11
    49a6:	3a 89       	ldd	r19, Y+18	; 0x12
    49a8:	21 15       	cp	r18, r1
    49aa:	31 05       	cpc	r19, r1
    49ac:	29 f0       	breq	.+10     	; 0x49b8 <timerCalcPwm+0x3de>
    49ae:	eb 81       	ldd	r30, Y+3	; 0x03
    49b0:	fc 81       	ldd	r31, Y+4	; 0x04
    49b2:	d9 01       	movw	r26, r18
    49b4:	ed 93       	st	X+, r30
    49b6:	fc 93       	st	X, r31
    49b8:	8c 2d       	mov	r24, r12
    49ba:	6e 96       	adiw	r28, 0x1e	; 30
    49bc:	0f b6       	in	r0, 0x3f	; 63
    49be:	f8 94       	cli
    49c0:	de bf       	out	0x3e, r29	; 62
    49c2:	0f be       	out	0x3f, r0	; 63
    49c4:	cd bf       	out	0x3d, r28	; 61
    49c6:	cf 91       	pop	r28
    49c8:	df 91       	pop	r29
    49ca:	1f 91       	pop	r17
    49cc:	0f 91       	pop	r16
    49ce:	ff 90       	pop	r15
    49d0:	ef 90       	pop	r14
    49d2:	df 90       	pop	r13
    49d4:	cf 90       	pop	r12
    49d6:	bf 90       	pop	r11
    49d8:	af 90       	pop	r10
    49da:	9f 90       	pop	r9
    49dc:	8f 90       	pop	r8
    49de:	7f 90       	pop	r7
    49e0:	6f 90       	pop	r6
    49e2:	5f 90       	pop	r5
    49e4:	4f 90       	pop	r4
    49e6:	3f 90       	pop	r3
    49e8:	2f 90       	pop	r2
    49ea:	08 95       	ret
    49ec:	61 e0       	ldi	r22, 0x01	; 1
    49ee:	70 e0       	ldi	r23, 0x00	; 0
    49f0:	05 cf       	rjmp	.-502    	; 0x47fc <timerCalcPwm+0x222>

000049f2 <__uartHWSetBaudRate>:
    49f2:	bf 92       	push	r11
    49f4:	cf 92       	push	r12
    49f6:	df 92       	push	r13
    49f8:	ef 92       	push	r14
    49fa:	ff 92       	push	r15
    49fc:	0f 93       	push	r16
    49fe:	1f 93       	push	r17
    4a00:	cf 93       	push	r28
    4a02:	df 93       	push	r29
    4a04:	7a 01       	movw	r14, r20
    4a06:	8b 01       	movw	r16, r22
    4a08:	ec 01       	movw	r28, r24
    4a0a:	bf b6       	in	r11, 0x3f	; 63
    4a0c:	f8 94       	cli
    4a0e:	4f 3f       	cpi	r20, 0xFF	; 255
    4a10:	8f ef       	ldi	r24, 0xFF	; 255
    4a12:	58 07       	cpc	r21, r24
    4a14:	8f ef       	ldi	r24, 0xFF	; 255
    4a16:	68 07       	cpc	r22, r24
    4a18:	8f ef       	ldi	r24, 0xFF	; 255
    4a1a:	78 07       	cpc	r23, r24
    4a1c:	21 f4       	brne	.+8      	; 0x4a26 <__uartHWSetBaudRate+0x34>
    4a1e:	a1 e0       	ldi	r26, 0x01	; 1
    4a20:	ca 2e       	mov	r12, r26
    4a22:	d1 2c       	mov	r13, r1
    4a24:	24 c0       	rjmp	.+72     	; 0x4a6e <__uartHWSetBaudRate+0x7c>
    4a26:	cb 01       	movw	r24, r22
    4a28:	ba 01       	movw	r22, r20
    4a2a:	f3 e0       	ldi	r31, 0x03	; 3
    4a2c:	66 0f       	add	r22, r22
    4a2e:	77 1f       	adc	r23, r23
    4a30:	88 1f       	adc	r24, r24
    4a32:	99 1f       	adc	r25, r25
    4a34:	fa 95       	dec	r31
    4a36:	d1 f7       	brne	.-12     	; 0x4a2c <__uartHWSetBaudRate+0x3a>
    4a38:	20 91 62 00 	lds	r18, 0x0062
    4a3c:	30 91 63 00 	lds	r19, 0x0063
    4a40:	40 91 64 00 	lds	r20, 0x0064
    4a44:	50 91 65 00 	lds	r21, 0x0065
    4a48:	62 0f       	add	r22, r18
    4a4a:	73 1f       	adc	r23, r19
    4a4c:	84 1f       	adc	r24, r20
    4a4e:	95 1f       	adc	r25, r21
    4a50:	a8 01       	movw	r20, r16
    4a52:	97 01       	movw	r18, r14
    4a54:	e4 e0       	ldi	r30, 0x04	; 4
    4a56:	22 0f       	add	r18, r18
    4a58:	33 1f       	adc	r19, r19
    4a5a:	44 1f       	adc	r20, r20
    4a5c:	55 1f       	adc	r21, r21
    4a5e:	ea 95       	dec	r30
    4a60:	d1 f7       	brne	.-12     	; 0x4a56 <__uartHWSetBaudRate+0x64>
    4a62:	0e 94 08 28 	call	0x5010	; 0x5010 <__udivmodsi4>
    4a66:	69 01       	movw	r12, r18
    4a68:	08 94       	sec
    4a6a:	c1 08       	sbc	r12, r1
    4a6c:	d1 08       	sbc	r13, r1
    4a6e:	9c a1       	ldd	r25, Y+36	; 0x24
    4a70:	99 23       	and	r25, r25
    4a72:	c9 f1       	breq	.+114    	; 0x4ae6 <__uartHWSetBaudRate+0xf4>
    4a74:	e8 8d       	ldd	r30, Y+24	; 0x18
    4a76:	f9 8d       	ldd	r31, Y+25	; 0x19
    4a78:	80 81       	ld	r24, Z
    4a7a:	90 95       	com	r25
    4a7c:	89 23       	and	r24, r25
    4a7e:	80 83       	st	Z, r24
    4a80:	8f ef       	ldi	r24, 0xFF	; 255
    4a82:	e8 16       	cp	r14, r24
    4a84:	8f ef       	ldi	r24, 0xFF	; 255
    4a86:	f8 06       	cpc	r15, r24
    4a88:	8f ef       	ldi	r24, 0xFF	; 255
    4a8a:	08 07       	cpc	r16, r24
    4a8c:	8f ef       	ldi	r24, 0xFF	; 255
    4a8e:	18 07       	cpc	r17, r24
    4a90:	19 f4       	brne	.+6      	; 0x4a98 <__uartHWSetBaudRate+0xa6>
    4a92:	21 e0       	ldi	r18, 0x01	; 1
    4a94:	30 e0       	ldi	r19, 0x00	; 0
    4a96:	1d c0       	rjmp	.+58     	; 0x4ad2 <__uartHWSetBaudRate+0xe0>
    4a98:	32 e0       	ldi	r19, 0x02	; 2
    4a9a:	ee 0c       	add	r14, r14
    4a9c:	ff 1c       	adc	r15, r15
    4a9e:	00 1f       	adc	r16, r16
    4aa0:	11 1f       	adc	r17, r17
    4aa2:	3a 95       	dec	r19
    4aa4:	d1 f7       	brne	.-12     	; 0x4a9a <__uartHWSetBaudRate+0xa8>
    4aa6:	60 91 62 00 	lds	r22, 0x0062
    4aaa:	70 91 63 00 	lds	r23, 0x0063
    4aae:	80 91 64 00 	lds	r24, 0x0064
    4ab2:	90 91 65 00 	lds	r25, 0x0065
    4ab6:	6e 0d       	add	r22, r14
    4ab8:	7f 1d       	adc	r23, r15
    4aba:	80 1f       	adc	r24, r16
    4abc:	91 1f       	adc	r25, r17
    4abe:	ee 0c       	add	r14, r14
    4ac0:	ff 1c       	adc	r15, r15
    4ac2:	00 1f       	adc	r16, r16
    4ac4:	11 1f       	adc	r17, r17
    4ac6:	a8 01       	movw	r20, r16
    4ac8:	97 01       	movw	r18, r14
    4aca:	0e 94 08 28 	call	0x5010	; 0x5010 <__udivmodsi4>
    4ace:	21 50       	subi	r18, 0x01	; 1
    4ad0:	30 40       	sbci	r19, 0x00	; 0
    4ad2:	2c 15       	cp	r18, r12
    4ad4:	3d 05       	cpc	r19, r13
    4ad6:	38 f0       	brcs	.+14     	; 0x4ae6 <__uartHWSetBaudRate+0xf4>
    4ad8:	e8 8d       	ldd	r30, Y+24	; 0x18
    4ada:	f9 8d       	ldd	r31, Y+25	; 0x19
    4adc:	80 81       	ld	r24, Z
    4ade:	9c a1       	ldd	r25, Y+36	; 0x24
    4ae0:	89 2b       	or	r24, r25
    4ae2:	80 83       	st	Z, r24
    4ae4:	69 01       	movw	r12, r18
    4ae6:	ec 8d       	ldd	r30, Y+28	; 0x1c
    4ae8:	fd 8d       	ldd	r31, Y+29	; 0x1d
    4aea:	c0 82       	st	Z, r12
    4aec:	ee 8d       	ldd	r30, Y+30	; 0x1e
    4aee:	ff 8d       	ldd	r31, Y+31	; 0x1f
    4af0:	d0 82       	st	Z, r13
    4af2:	bf be       	out	0x3f, r11	; 63
    4af4:	df 91       	pop	r29
    4af6:	cf 91       	pop	r28
    4af8:	1f 91       	pop	r17
    4afa:	0f 91       	pop	r16
    4afc:	ff 90       	pop	r15
    4afe:	ef 90       	pop	r14
    4b00:	df 90       	pop	r13
    4b02:	cf 90       	pop	r12
    4b04:	bf 90       	pop	r11
    4b06:	08 95       	ret

00004b08 <__uartHWOff>:
    4b08:	dc 01       	movw	r26, r24
    4b0a:	5a 96       	adiw	r26, 0x1a	; 26
    4b0c:	ed 91       	ld	r30, X+
    4b0e:	fc 91       	ld	r31, X
    4b10:	5b 97       	sbiw	r26, 0x1b	; 27
    4b12:	80 81       	ld	r24, Z
    4b14:	87 72       	andi	r24, 0x27	; 39
    4b16:	80 83       	st	Z, r24
    4b18:	94 96       	adiw	r26, 0x24	; 36
    4b1a:	9c 91       	ld	r25, X
    4b1c:	94 97       	sbiw	r26, 0x24	; 36
    4b1e:	99 23       	and	r25, r25
    4b20:	41 f0       	breq	.+16     	; 0x4b32 <__uartHWOff+0x2a>
    4b22:	58 96       	adiw	r26, 0x18	; 24
    4b24:	ed 91       	ld	r30, X+
    4b26:	fc 91       	ld	r31, X
    4b28:	59 97       	sbiw	r26, 0x19	; 25
    4b2a:	80 81       	ld	r24, Z
    4b2c:	90 95       	com	r25
    4b2e:	89 23       	and	r24, r25
    4b30:	80 83       	st	Z, r24
    4b32:	08 95       	ret

00004b34 <oneWireReceiveMode>:
    4b34:	dc 01       	movw	r26, r24
    4b36:	53 96       	adiw	r26, 0x13	; 19
    4b38:	8c 91       	ld	r24, X
    4b3a:	53 97       	sbiw	r26, 0x13	; 19
    4b3c:	88 23       	and	r24, r24
    4b3e:	71 f0       	breq	.+28     	; 0x4b5c <oneWireReceiveMode+0x28>
    4b40:	5a 96       	adiw	r26, 0x1a	; 26
    4b42:	ed 91       	ld	r30, X+
    4b44:	fc 91       	ld	r31, X
    4b46:	5b 97       	sbiw	r26, 0x1b	; 27
    4b48:	80 81       	ld	r24, Z
    4b4a:	87 7b       	andi	r24, 0xB7	; 183
    4b4c:	80 83       	st	Z, r24
    4b4e:	5a 96       	adiw	r26, 0x1a	; 26
    4b50:	ed 91       	ld	r30, X+
    4b52:	fc 91       	ld	r31, X
    4b54:	5b 97       	sbiw	r26, 0x1b	; 27
    4b56:	80 81       	ld	r24, Z
    4b58:	80 69       	ori	r24, 0x90	; 144
    4b5a:	80 83       	st	Z, r24
    4b5c:	08 95       	ret

00004b5e <__uartHWStartXmit>:
    4b5e:	dc 01       	movw	r26, r24
    4b60:	90 96       	adiw	r26, 0x20	; 32
    4b62:	ed 91       	ld	r30, X+
    4b64:	fc 91       	ld	r31, X
    4b66:	91 97       	sbiw	r26, 0x21	; 33
    4b68:	60 83       	st	Z, r22
    4b6a:	08 95       	ret

00004b6c <startXmitMode>:
    4b6c:	dc 01       	movw	r26, r24
    4b6e:	53 96       	adiw	r26, 0x13	; 19
    4b70:	8c 91       	ld	r24, X
    4b72:	53 97       	sbiw	r26, 0x13	; 19
    4b74:	88 23       	and	r24, r24
    4b76:	71 f0       	breq	.+28     	; 0x4b94 <startXmitMode+0x28>
    4b78:	5a 96       	adiw	r26, 0x1a	; 26
    4b7a:	ed 91       	ld	r30, X+
    4b7c:	fc 91       	ld	r31, X
    4b7e:	5b 97       	sbiw	r26, 0x1b	; 27
    4b80:	80 81       	ld	r24, Z
    4b82:	8f 76       	andi	r24, 0x6F	; 111
    4b84:	80 83       	st	Z, r24
    4b86:	5a 96       	adiw	r26, 0x1a	; 26
    4b88:	ed 91       	ld	r30, X+
    4b8a:	fc 91       	ld	r31, X
    4b8c:	5b 97       	sbiw	r26, 0x1b	; 27
    4b8e:	80 81       	ld	r24, Z
    4b90:	88 64       	ori	r24, 0x48	; 72
    4b92:	80 83       	st	Z, r24
    4b94:	08 95       	ret

00004b96 <uartReceivePollingMode>:
    4b96:	dc 01       	movw	r26, r24
    4b98:	5a 96       	adiw	r26, 0x1a	; 26
    4b9a:	ed 91       	ld	r30, X+
    4b9c:	fc 91       	ld	r31, X
    4b9e:	5b 97       	sbiw	r26, 0x1b	; 27
    4ba0:	66 23       	and	r22, r22
    4ba2:	19 f0       	breq	.+6      	; 0x4baa <uartReceivePollingMode+0x14>
    4ba4:	80 81       	ld	r24, Z
    4ba6:	8f 77       	andi	r24, 0x7F	; 127
    4ba8:	02 c0       	rjmp	.+4      	; 0x4bae <uartReceivePollingMode+0x18>
    4baa:	80 81       	ld	r24, Z
    4bac:	80 68       	ori	r24, 0x80	; 128
    4bae:	80 83       	st	Z, r24
    4bb0:	08 95       	ret

00004bb2 <uartPollByte>:
    4bb2:	dc 01       	movw	r26, r24
    4bb4:	58 96       	adiw	r26, 0x18	; 24
    4bb6:	ed 91       	ld	r30, X+
    4bb8:	fc 91       	ld	r31, X
    4bba:	59 97       	sbiw	r26, 0x19	; 25
    4bbc:	80 81       	ld	r24, Z
    4bbe:	87 fd       	sbrc	r24, 7
    4bc0:	03 c0       	rjmp	.+6      	; 0x4bc8 <uartPollByte+0x16>
    4bc2:	2f ef       	ldi	r18, 0xFF	; 255
    4bc4:	3f ef       	ldi	r19, 0xFF	; 255
    4bc6:	07 c0       	rjmp	.+14     	; 0x4bd6 <uartPollByte+0x24>
    4bc8:	90 96       	adiw	r26, 0x20	; 32
    4bca:	ed 91       	ld	r30, X+
    4bcc:	fc 91       	ld	r31, X
    4bce:	91 97       	sbiw	r26, 0x21	; 33
    4bd0:	80 81       	ld	r24, Z
    4bd2:	28 2f       	mov	r18, r24
    4bd4:	30 e0       	ldi	r19, 0x00	; 0
    4bd6:	c9 01       	movw	r24, r18
    4bd8:	08 95       	ret

00004bda <__uartHWInit>:
    4bda:	0f 93       	push	r16
    4bdc:	1f 93       	push	r17
    4bde:	8c 01       	movw	r16, r24
    4be0:	0e 94 5e 0f 	call	0x1ebc	; 0x1ebc <_uartSetBaudRate>
    4be4:	d8 01       	movw	r26, r16
    4be6:	53 96       	adiw	r26, 0x13	; 19
    4be8:	8c 91       	ld	r24, X
    4bea:	53 97       	sbiw	r26, 0x13	; 19
    4bec:	5a 96       	adiw	r26, 0x1a	; 26
    4bee:	ed 91       	ld	r30, X+
    4bf0:	fc 91       	ld	r31, X
    4bf2:	5b 97       	sbiw	r26, 0x1b	; 27
    4bf4:	88 23       	and	r24, r24
    4bf6:	11 f0       	breq	.+4      	; 0x4bfc <__uartHWInit+0x22>
    4bf8:	80 e9       	ldi	r24, 0x90	; 144
    4bfa:	01 c0       	rjmp	.+2      	; 0x4bfe <__uartHWInit+0x24>
    4bfc:	88 ed       	ldi	r24, 0xD8	; 216
    4bfe:	80 83       	st	Z, r24
    4c00:	1f 91       	pop	r17
    4c02:	0f 91       	pop	r16
    4c04:	08 95       	ret

00004c06 <__scheduleUpdate>:
    4c06:	2f 92       	push	r2
    4c08:	3f 92       	push	r3
    4c0a:	4f 92       	push	r4
    4c0c:	5f 92       	push	r5
    4c0e:	6f 92       	push	r6
    4c10:	7f 92       	push	r7
    4c12:	8f 92       	push	r8
    4c14:	9f 92       	push	r9
    4c16:	af 92       	push	r10
    4c18:	bf 92       	push	r11
    4c1a:	cf 92       	push	r12
    4c1c:	df 92       	push	r13
    4c1e:	ef 92       	push	r14
    4c20:	ff 92       	push	r15
    4c22:	0f 93       	push	r16
    4c24:	1f 93       	push	r17
    4c26:	df 93       	push	r29
    4c28:	cf 93       	push	r28
    4c2a:	cd b7       	in	r28, 0x3d	; 61
    4c2c:	de b7       	in	r29, 0x3e	; 62
    4c2e:	29 97       	sbiw	r28, 0x09	; 9
    4c30:	0f b6       	in	r0, 0x3f	; 63
    4c32:	f8 94       	cli
    4c34:	de bf       	out	0x3e, r29	; 62
    4c36:	0f be       	out	0x3f, r0	; 63
    4c38:	cd bf       	out	0x3d, r28	; 61
    4c3a:	99 87       	std	Y+9, r25	; 0x09
    4c3c:	88 87       	std	Y+8, r24	; 0x08
    4c3e:	0e 94 d5 1b 	call	0x37aa	; 0x37aa <compareDetach>
    4c42:	2f b7       	in	r18, 0x3f	; 63
    4c44:	2f 83       	std	Y+7, r18	; 0x07
    4c46:	78 94       	sei
    4c48:	8f ef       	ldi	r24, 0xFF	; 255
    4c4a:	80 93 f4 03 	sts	0x03F4, r24
    4c4e:	10 92 f3 03 	sts	0x03F3, r1
    4c52:	80 91 92 00 	lds	r24, 0x0092
    4c56:	a8 2f       	mov	r26, r24
    4c58:	b0 e0       	ldi	r27, 0x00	; 0
    4c5a:	11 97       	sbiw	r26, 0x01	; 1
    4c5c:	be 83       	std	Y+6, r27	; 0x06
    4c5e:	ad 83       	std	Y+5, r26	; 0x05
    4c60:	ed e0       	ldi	r30, 0x0D	; 13
    4c62:	f0 e0       	ldi	r31, 0x00	; 0
    4c64:	ae 9f       	mul	r26, r30
    4c66:	50 01       	movw	r10, r0
    4c68:	af 9f       	mul	r26, r31
    4c6a:	b0 0c       	add	r11, r0
    4c6c:	be 9f       	mul	r27, r30
    4c6e:	b0 0c       	add	r11, r0
    4c70:	11 24       	eor	r1, r1
    4c72:	21 e2       	ldi	r18, 0x21	; 33
    4c74:	32 e0       	ldi	r19, 0x02	; 2
    4c76:	a2 0e       	add	r10, r18
    4c78:	b3 1e       	adc	r11, r19
    4c7a:	22 24       	eor	r2, r2
    4c7c:	33 24       	eor	r3, r3
    4c7e:	21 01       	movw	r4, r2
    4c80:	5a c0       	rjmp	.+180    	; 0x4d36 <__scheduleUpdate+0x130>
    4c82:	d5 01       	movw	r26, r10
    4c84:	8c 91       	ld	r24, X
    4c86:	88 23       	and	r24, r24
    4c88:	09 f4       	brne	.+2      	; 0x4c8c <__scheduleUpdate+0x86>
    4c8a:	4c c0       	rjmp	.+152    	; 0x4d24 <__scheduleUpdate+0x11e>
    4c8c:	19 96       	adiw	r26, 0x09	; 9
    4c8e:	6d 90       	ld	r6, X+
    4c90:	7d 90       	ld	r7, X+
    4c92:	8d 90       	ld	r8, X+
    4c94:	9c 90       	ld	r9, X
    4c96:	1c 97       	sbiw	r26, 0x0c	; 12
    4c98:	15 96       	adiw	r26, 0x05	; 5
    4c9a:	cd 90       	ld	r12, X+
    4c9c:	dd 90       	ld	r13, X+
    4c9e:	ed 90       	ld	r14, X+
    4ca0:	fc 90       	ld	r15, X
    4ca2:	18 97       	sbiw	r26, 0x08	; 8
    4ca4:	c4 01       	movw	r24, r8
    4ca6:	b3 01       	movw	r22, r6
    4ca8:	a7 01       	movw	r20, r14
    4caa:	96 01       	movw	r18, r12
    4cac:	8e 01       	movw	r16, r28
    4cae:	0f 5f       	subi	r16, 0xFF	; 255
    4cb0:	1f 4f       	sbci	r17, 0xFF	; 255
    4cb2:	0e 94 6e 20 	call	0x40dc	; 0x40dc <clockHasElapsedGetOverflow>
    4cb6:	88 23       	and	r24, r24
    4cb8:	19 f1       	breq	.+70     	; 0x4d00 <__scheduleUpdate+0xfa>
    4cba:	d5 01       	movw	r26, r10
    4cbc:	11 96       	adiw	r26, 0x01	; 1
    4cbe:	ed 91       	ld	r30, X+
    4cc0:	fc 91       	ld	r31, X
    4cc2:	12 97       	sbiw	r26, 0x02	; 2
    4cc4:	13 96       	adiw	r26, 0x03	; 3
    4cc6:	8d 91       	ld	r24, X+
    4cc8:	9c 91       	ld	r25, X
    4cca:	14 97       	sbiw	r26, 0x04	; 4
    4ccc:	1c 92       	st	X, r1
    4cce:	20 91 f1 03 	lds	r18, 0x03F1
    4cd2:	30 91 f2 03 	lds	r19, 0x03F2
    4cd6:	21 50       	subi	r18, 0x01	; 1
    4cd8:	30 40       	sbci	r19, 0x00	; 0
    4cda:	30 93 f2 03 	sts	0x03F2, r19
    4cde:	20 93 f1 03 	sts	0x03F1, r18
    4ce2:	c6 0c       	add	r12, r6
    4ce4:	d7 1c       	adc	r13, r7
    4ce6:	e8 1c       	adc	r14, r8
    4ce8:	f9 1c       	adc	r15, r9
    4cea:	09 81       	ldd	r16, Y+1	; 0x01
    4cec:	1a 81       	ldd	r17, Y+2	; 0x02
    4cee:	2b 81       	ldd	r18, Y+3	; 0x03
    4cf0:	3c 81       	ldd	r19, Y+4	; 0x04
    4cf2:	b7 01       	movw	r22, r14
    4cf4:	a6 01       	movw	r20, r12
    4cf6:	09 95       	icall
    4cf8:	bf ef       	ldi	r27, 0xFF	; 255
    4cfa:	b0 93 f3 03 	sts	0x03F3, r27
    4cfe:	12 c0       	rjmp	.+36     	; 0x4d24 <__scheduleUpdate+0x11e>
    4d00:	21 14       	cp	r2, r1
    4d02:	31 04       	cpc	r3, r1
    4d04:	41 04       	cpc	r4, r1
    4d06:	51 04       	cpc	r5, r1
    4d08:	49 f0       	breq	.+18     	; 0x4d1c <__scheduleUpdate+0x116>
    4d0a:	89 81       	ldd	r24, Y+1	; 0x01
    4d0c:	9a 81       	ldd	r25, Y+2	; 0x02
    4d0e:	ab 81       	ldd	r26, Y+3	; 0x03
    4d10:	bc 81       	ldd	r27, Y+4	; 0x04
    4d12:	82 15       	cp	r24, r2
    4d14:	93 05       	cpc	r25, r3
    4d16:	a4 05       	cpc	r26, r4
    4d18:	b5 05       	cpc	r27, r5
    4d1a:	20 f4       	brcc	.+8      	; 0x4d24 <__scheduleUpdate+0x11e>
    4d1c:	29 80       	ldd	r2, Y+1	; 0x01
    4d1e:	3a 80       	ldd	r3, Y+2	; 0x02
    4d20:	4b 80       	ldd	r4, Y+3	; 0x03
    4d22:	5c 80       	ldd	r5, Y+4	; 0x04
    4d24:	ed 81       	ldd	r30, Y+5	; 0x05
    4d26:	fe 81       	ldd	r31, Y+6	; 0x06
    4d28:	31 97       	sbiw	r30, 0x01	; 1
    4d2a:	fe 83       	std	Y+6, r31	; 0x06
    4d2c:	ed 83       	std	Y+5, r30	; 0x05
    4d2e:	23 ef       	ldi	r18, 0xF3	; 243
    4d30:	3f ef       	ldi	r19, 0xFF	; 255
    4d32:	a2 0e       	add	r10, r18
    4d34:	b3 1e       	adc	r11, r19
    4d36:	8d 81       	ldd	r24, Y+5	; 0x05
    4d38:	9e 81       	ldd	r25, Y+6	; 0x06
    4d3a:	8f 5f       	subi	r24, 0xFF	; 255
    4d3c:	9f 4f       	sbci	r25, 0xFF	; 255
    4d3e:	09 f0       	breq	.+2      	; 0x4d42 <__scheduleUpdate+0x13c>
    4d40:	a0 cf       	rjmp	.-192    	; 0x4c82 <__scheduleUpdate+0x7c>
    4d42:	80 91 f3 03 	lds	r24, 0x03F3
    4d46:	88 23       	and	r24, r24
    4d48:	09 f0       	breq	.+2      	; 0x4d4c <__scheduleUpdate+0x146>
    4d4a:	81 cf       	rjmp	.-254    	; 0x4c4e <__scheduleUpdate+0x48>
    4d4c:	10 92 f4 03 	sts	0x03F4, r1
    4d50:	80 91 f1 03 	lds	r24, 0x03F1
    4d54:	90 91 f2 03 	lds	r25, 0x03F2
    4d58:	18 16       	cp	r1, r24
    4d5a:	19 06       	cpc	r1, r25
    4d5c:	0c f0       	brlt	.+2      	; 0x4d60 <__scheduleUpdate+0x15a>
    4d5e:	44 c0       	rjmp	.+136    	; 0x4de8 <__scheduleUpdate+0x1e2>
    4d60:	f0 90 ef 03 	lds	r15, 0x03EF
    4d64:	e0 90 f0 03 	lds	r14, 0x03F0
    4d68:	ef 2d       	mov	r30, r15
    4d6a:	fe 2d       	mov	r31, r14
    4d6c:	05 91       	lpm	r16, Z+
    4d6e:	14 91       	lpm	r17, Z+
    4d70:	20 91 68 00 	lds	r18, 0x0068
    4d74:	30 91 69 00 	lds	r19, 0x0069
    4d78:	40 e0       	ldi	r20, 0x00	; 0
    4d7a:	50 e0       	ldi	r21, 0x00	; 0
    4d7c:	c2 01       	movw	r24, r4
    4d7e:	b1 01       	movw	r22, r2
    4d80:	0e 94 b6 27 	call	0x4f6c	; 0x4f6c <__mulsi3>
    4d84:	f8 01       	movw	r30, r16
    4d86:	20 81       	ld	r18, Z
    4d88:	31 81       	ldd	r19, Z+1	; 0x01
    4d8a:	40 e0       	ldi	r20, 0x00	; 0
    4d8c:	50 e0       	ldi	r21, 0x00	; 0
    4d8e:	0e 94 08 28 	call	0x5010	; 0x5010 <__udivmodsi4>
    4d92:	59 01       	movw	r10, r18
    4d94:	6a 01       	movw	r12, r20
    4d96:	8f 2d       	mov	r24, r15
    4d98:	9e 2d       	mov	r25, r14
    4d9a:	0e 94 5b 1c 	call	0x38b6	; 0x38b6 <timerGetTOP>
    4d9e:	7c 01       	movw	r14, r24
    4da0:	00 e0       	ldi	r16, 0x00	; 0
    4da2:	10 e0       	ldi	r17, 0x00	; 0
    4da4:	ae 14       	cp	r10, r14
    4da6:	bf 04       	cpc	r11, r15
    4da8:	c0 06       	cpc	r12, r16
    4daa:	d1 06       	cpc	r13, r17
    4dac:	10 f4       	brcc	.+4      	; 0x4db2 <__scheduleUpdate+0x1ac>
    4dae:	86 01       	movw	r16, r12
    4db0:	75 01       	movw	r14, r10
    4db2:	80 91 ef 03 	lds	r24, 0x03EF
    4db6:	90 91 f0 03 	lds	r25, 0x03F0
    4dba:	0e 94 5b 1c 	call	0x38b6	; 0x38b6 <timerGetTOP>
    4dbe:	8c 01       	movw	r16, r24
    4dc0:	80 91 ef 03 	lds	r24, 0x03EF
    4dc4:	90 91 f0 03 	lds	r25, 0x03F0
    4dc8:	0e 94 6d 19 	call	0x32da	; 0x32da <timerGetCounter>
    4dcc:	8e 0d       	add	r24, r14
    4dce:	9f 1d       	adc	r25, r15
    4dd0:	b8 01       	movw	r22, r16
    4dd2:	0e 94 e1 27 	call	0x4fc2	; 0x4fc2 <__udivmodhi4>
    4dd6:	ac 01       	movw	r20, r24
    4dd8:	88 85       	ldd	r24, Y+8	; 0x08
    4dda:	99 85       	ldd	r25, Y+9	; 0x09
    4ddc:	63 e0       	ldi	r22, 0x03	; 3
    4dde:	76 e2       	ldi	r23, 0x26	; 38
    4de0:	20 e0       	ldi	r18, 0x00	; 0
    4de2:	30 e0       	ldi	r19, 0x00	; 0
    4de4:	0e 94 d6 1e 	call	0x3dac	; 0x3dac <compareAttach>
    4de8:	ff 81       	ldd	r31, Y+7	; 0x07
    4dea:	ff bf       	out	0x3f, r31	; 63
    4dec:	29 96       	adiw	r28, 0x09	; 9
    4dee:	0f b6       	in	r0, 0x3f	; 63
    4df0:	f8 94       	cli
    4df2:	de bf       	out	0x3e, r29	; 62
    4df4:	0f be       	out	0x3f, r0	; 63
    4df6:	cd bf       	out	0x3d, r28	; 61
    4df8:	cf 91       	pop	r28
    4dfa:	df 91       	pop	r29
    4dfc:	1f 91       	pop	r17
    4dfe:	0f 91       	pop	r16
    4e00:	ff 90       	pop	r15
    4e02:	ef 90       	pop	r14
    4e04:	df 90       	pop	r13
    4e06:	cf 90       	pop	r12
    4e08:	bf 90       	pop	r11
    4e0a:	af 90       	pop	r10
    4e0c:	9f 90       	pop	r9
    4e0e:	8f 90       	pop	r8
    4e10:	7f 90       	pop	r7
    4e12:	6f 90       	pop	r6
    4e14:	5f 90       	pop	r5
    4e16:	4f 90       	pop	r4
    4e18:	3f 90       	pop	r3
    4e1a:	2f 90       	pop	r2
    4e1c:	08 95       	ret

00004e1e <scheduleJob>:
    4e1e:	2f 92       	push	r2
    4e20:	3f 92       	push	r3
    4e22:	4f 92       	push	r4
    4e24:	5f 92       	push	r5
    4e26:	6f 92       	push	r6
    4e28:	7f 92       	push	r7
    4e2a:	8f 92       	push	r8
    4e2c:	9f 92       	push	r9
    4e2e:	af 92       	push	r10
    4e30:	bf 92       	push	r11
    4e32:	cf 92       	push	r12
    4e34:	df 92       	push	r13
    4e36:	ef 92       	push	r14
    4e38:	ff 92       	push	r15
    4e3a:	0f 93       	push	r16
    4e3c:	1f 93       	push	r17
    4e3e:	df 93       	push	r29
    4e40:	cf 93       	push	r28
    4e42:	00 d0       	rcall	.+0      	; 0x4e44 <scheduleJob+0x26>
    4e44:	00 d0       	rcall	.+0      	; 0x4e46 <scheduleJob+0x28>
    4e46:	cd b7       	in	r28, 0x3d	; 61
    4e48:	de b7       	in	r29, 0x3e	; 62
    4e4a:	1c 01       	movw	r2, r24
    4e4c:	2b 01       	movw	r4, r22
    4e4e:	49 01       	movw	r8, r18
    4e50:	5a 01       	movw	r10, r20
    4e52:	67 01       	movw	r12, r14
    4e54:	78 01       	movw	r14, r16
    4e56:	88 ee       	ldi	r24, 0xE8	; 232
    4e58:	c8 16       	cp	r12, r24
    4e5a:	83 e0       	ldi	r24, 0x03	; 3
    4e5c:	d8 06       	cpc	r13, r24
    4e5e:	80 e0       	ldi	r24, 0x00	; 0
    4e60:	e8 06       	cpc	r14, r24
    4e62:	80 e0       	ldi	r24, 0x00	; 0
    4e64:	f8 06       	cpc	r15, r24
    4e66:	38 f4       	brcc	.+14     	; 0x4e76 <scheduleJob+0x58>
    4e68:	80 91 f4 03 	lds	r24, 0x03F4
    4e6c:	88 23       	and	r24, r24
    4e6e:	c1 f1       	breq	.+112    	; 0x4ee0 <scheduleJob+0xc2>
    4e70:	8f ef       	ldi	r24, 0xFF	; 255
    4e72:	80 93 f3 03 	sts	0x03F3, r24
    4e76:	6f b7       	in	r22, 0x3f	; 63
    4e78:	f8 94       	cli
    4e7a:	80 91 92 00 	lds	r24, 0x0092
    4e7e:	48 2f       	mov	r20, r24
    4e80:	50 e0       	ldi	r21, 0x00	; 0
    4e82:	a1 e2       	ldi	r26, 0x21	; 33
    4e84:	b2 e0       	ldi	r27, 0x02	; 2
    4e86:	20 e0       	ldi	r18, 0x00	; 0
    4e88:	30 e0       	ldi	r19, 0x00	; 0
    4e8a:	20 c0       	rjmp	.+64     	; 0x4ecc <scheduleJob+0xae>
    4e8c:	fd 01       	movw	r30, r26
    4e8e:	8c 91       	ld	r24, X
    4e90:	1d 96       	adiw	r26, 0x0d	; 13
    4e92:	88 23       	and	r24, r24
    4e94:	c9 f4       	brne	.+50     	; 0x4ec8 <scheduleJob+0xaa>
    4e96:	8f ef       	ldi	r24, 0xFF	; 255
    4e98:	80 83       	st	Z, r24
    4e9a:	32 82       	std	Z+2, r3	; 0x02
    4e9c:	21 82       	std	Z+1, r2	; 0x01
    4e9e:	54 82       	std	Z+4, r5	; 0x04
    4ea0:	43 82       	std	Z+3, r4	; 0x03
    4ea2:	81 86       	std	Z+9, r8	; 0x09
    4ea4:	92 86       	std	Z+10, r9	; 0x0a
    4ea6:	a3 86       	std	Z+11, r10	; 0x0b
    4ea8:	b4 86       	std	Z+12, r11	; 0x0c
    4eaa:	c5 82       	std	Z+5, r12	; 0x05
    4eac:	d6 82       	std	Z+6, r13	; 0x06
    4eae:	e7 82       	std	Z+7, r14	; 0x07
    4eb0:	f0 86       	std	Z+8, r15	; 0x08
    4eb2:	80 91 f1 03 	lds	r24, 0x03F1
    4eb6:	90 91 f2 03 	lds	r25, 0x03F2
    4eba:	01 96       	adiw	r24, 0x01	; 1
    4ebc:	90 93 f2 03 	sts	0x03F2, r25
    4ec0:	80 93 f1 03 	sts	0x03F1, r24
    4ec4:	8f ef       	ldi	r24, 0xFF	; 255
    4ec6:	06 c0       	rjmp	.+12     	; 0x4ed4 <scheduleJob+0xb6>
    4ec8:	2f 5f       	subi	r18, 0xFF	; 255
    4eca:	3f 4f       	sbci	r19, 0xFF	; 255
    4ecc:	24 17       	cp	r18, r20
    4ece:	35 07       	cpc	r19, r21
    4ed0:	ec f2       	brlt	.-70     	; 0x4e8c <scheduleJob+0x6e>
    4ed2:	80 e0       	ldi	r24, 0x00	; 0
    4ed4:	6f bf       	out	0x3f, r22	; 63
    4ed6:	88 23       	and	r24, r24
    4ed8:	59 f5       	brne	.+86     	; 0x4f30 <scheduleJob+0x112>
    4eda:	8f ef       	ldi	r24, 0xFF	; 255
    4edc:	0e 94 69 1b 	call	0x36d2	; 0x36d2 <setError>
    4ee0:	3e 01       	movw	r6, r28
    4ee2:	08 94       	sec
    4ee4:	61 1c       	adc	r6, r1
    4ee6:	71 1c       	adc	r7, r1
    4ee8:	c5 01       	movw	r24, r10
    4eea:	b4 01       	movw	r22, r8
    4eec:	a7 01       	movw	r20, r14
    4eee:	96 01       	movw	r18, r12
    4ef0:	83 01       	movw	r16, r6
    4ef2:	0e 94 6e 20 	call	0x40dc	; 0x40dc <clockHasElapsedGetOverflow>
    4ef6:	88 23       	and	r24, r24
    4ef8:	b9 f3       	breq	.-18     	; 0x4ee8 <scheduleJob+0xca>
    4efa:	c8 0c       	add	r12, r8
    4efc:	d9 1c       	adc	r13, r9
    4efe:	ea 1c       	adc	r14, r10
    4f00:	fb 1c       	adc	r15, r11
    4f02:	09 81       	ldd	r16, Y+1	; 0x01
    4f04:	1a 81       	ldd	r17, Y+2	; 0x02
    4f06:	2b 81       	ldd	r18, Y+3	; 0x03
    4f08:	3c 81       	ldd	r19, Y+4	; 0x04
    4f0a:	c2 01       	movw	r24, r4
    4f0c:	b7 01       	movw	r22, r14
    4f0e:	a6 01       	movw	r20, r12
    4f10:	f1 01       	movw	r30, r2
    4f12:	09 95       	icall
    4f14:	11 c0       	rjmp	.+34     	; 0x4f38 <scheduleJob+0x11a>
    4f16:	e0 91 ef 03 	lds	r30, 0x03EF
    4f1a:	f0 91 f0 03 	lds	r31, 0x03F0
    4f1e:	77 96       	adiw	r30, 0x17	; 23
    4f20:	85 91       	lpm	r24, Z+
    4f22:	94 91       	lpm	r25, Z+
    4f24:	40 96       	adiw	r24, 0x10	; 16
    4f26:	60 e0       	ldi	r22, 0x00	; 0
    4f28:	70 e0       	ldi	r23, 0x00	; 0
    4f2a:	0e 94 03 26 	call	0x4c06	; 0x4c06 <__scheduleUpdate>
    4f2e:	04 c0       	rjmp	.+8      	; 0x4f38 <scheduleJob+0x11a>
    4f30:	80 91 f4 03 	lds	r24, 0x03F4
    4f34:	88 23       	and	r24, r24
    4f36:	79 f3       	breq	.-34     	; 0x4f16 <scheduleJob+0xf8>
    4f38:	0f 90       	pop	r0
    4f3a:	0f 90       	pop	r0
    4f3c:	0f 90       	pop	r0
    4f3e:	0f 90       	pop	r0
    4f40:	cf 91       	pop	r28
    4f42:	df 91       	pop	r29
    4f44:	1f 91       	pop	r17
    4f46:	0f 91       	pop	r16
    4f48:	ff 90       	pop	r15
    4f4a:	ef 90       	pop	r14
    4f4c:	df 90       	pop	r13
    4f4e:	cf 90       	pop	r12
    4f50:	bf 90       	pop	r11
    4f52:	af 90       	pop	r10
    4f54:	9f 90       	pop	r9
    4f56:	8f 90       	pop	r8
    4f58:	7f 90       	pop	r7
    4f5a:	6f 90       	pop	r6
    4f5c:	5f 90       	pop	r5
    4f5e:	4f 90       	pop	r4
    4f60:	3f 90       	pop	r3
    4f62:	2f 90       	pop	r2
    4f64:	08 95       	ret

00004f66 <exit>:
    4f66:	f8 94       	cli
    4f68:	0c 94 45 28 	jmp	0x508a	; 0x508a <_exit>

00004f6c <__mulsi3>:
    4f6c:	62 9f       	mul	r22, r18
    4f6e:	d0 01       	movw	r26, r0
    4f70:	73 9f       	mul	r23, r19
    4f72:	f0 01       	movw	r30, r0
    4f74:	82 9f       	mul	r24, r18
    4f76:	e0 0d       	add	r30, r0
    4f78:	f1 1d       	adc	r31, r1
    4f7a:	64 9f       	mul	r22, r20
    4f7c:	e0 0d       	add	r30, r0
    4f7e:	f1 1d       	adc	r31, r1
    4f80:	92 9f       	mul	r25, r18
    4f82:	f0 0d       	add	r31, r0
    4f84:	83 9f       	mul	r24, r19
    4f86:	f0 0d       	add	r31, r0
    4f88:	74 9f       	mul	r23, r20
    4f8a:	f0 0d       	add	r31, r0
    4f8c:	65 9f       	mul	r22, r21
    4f8e:	f0 0d       	add	r31, r0
    4f90:	99 27       	eor	r25, r25
    4f92:	72 9f       	mul	r23, r18
    4f94:	b0 0d       	add	r27, r0
    4f96:	e1 1d       	adc	r30, r1
    4f98:	f9 1f       	adc	r31, r25
    4f9a:	63 9f       	mul	r22, r19
    4f9c:	b0 0d       	add	r27, r0
    4f9e:	e1 1d       	adc	r30, r1
    4fa0:	f9 1f       	adc	r31, r25
    4fa2:	bd 01       	movw	r22, r26
    4fa4:	cf 01       	movw	r24, r30
    4fa6:	11 24       	eor	r1, r1
    4fa8:	08 95       	ret

00004faa <__udivmodqi4>:
    4faa:	99 1b       	sub	r25, r25
    4fac:	79 e0       	ldi	r23, 0x09	; 9
    4fae:	04 c0       	rjmp	.+8      	; 0x4fb8 <__udivmodqi4_ep>

00004fb0 <__udivmodqi4_loop>:
    4fb0:	99 1f       	adc	r25, r25
    4fb2:	96 17       	cp	r25, r22
    4fb4:	08 f0       	brcs	.+2      	; 0x4fb8 <__udivmodqi4_ep>
    4fb6:	96 1b       	sub	r25, r22

00004fb8 <__udivmodqi4_ep>:
    4fb8:	88 1f       	adc	r24, r24
    4fba:	7a 95       	dec	r23
    4fbc:	c9 f7       	brne	.-14     	; 0x4fb0 <__udivmodqi4_loop>
    4fbe:	80 95       	com	r24
    4fc0:	08 95       	ret

00004fc2 <__udivmodhi4>:
    4fc2:	aa 1b       	sub	r26, r26
    4fc4:	bb 1b       	sub	r27, r27
    4fc6:	51 e1       	ldi	r21, 0x11	; 17
    4fc8:	07 c0       	rjmp	.+14     	; 0x4fd8 <__udivmodhi4_ep>

00004fca <__udivmodhi4_loop>:
    4fca:	aa 1f       	adc	r26, r26
    4fcc:	bb 1f       	adc	r27, r27
    4fce:	a6 17       	cp	r26, r22
    4fd0:	b7 07       	cpc	r27, r23
    4fd2:	10 f0       	brcs	.+4      	; 0x4fd8 <__udivmodhi4_ep>
    4fd4:	a6 1b       	sub	r26, r22
    4fd6:	b7 0b       	sbc	r27, r23

00004fd8 <__udivmodhi4_ep>:
    4fd8:	88 1f       	adc	r24, r24
    4fda:	99 1f       	adc	r25, r25
    4fdc:	5a 95       	dec	r21
    4fde:	a9 f7       	brne	.-22     	; 0x4fca <__udivmodhi4_loop>
    4fe0:	80 95       	com	r24
    4fe2:	90 95       	com	r25
    4fe4:	bc 01       	movw	r22, r24
    4fe6:	cd 01       	movw	r24, r26
    4fe8:	08 95       	ret

00004fea <__divmodhi4>:
    4fea:	97 fb       	bst	r25, 7
    4fec:	09 2e       	mov	r0, r25
    4fee:	07 26       	eor	r0, r23
    4ff0:	0a d0       	rcall	.+20     	; 0x5006 <__divmodhi4_neg1>
    4ff2:	77 fd       	sbrc	r23, 7
    4ff4:	04 d0       	rcall	.+8      	; 0x4ffe <__divmodhi4_neg2>
    4ff6:	e5 df       	rcall	.-54     	; 0x4fc2 <__udivmodhi4>
    4ff8:	06 d0       	rcall	.+12     	; 0x5006 <__divmodhi4_neg1>
    4ffa:	00 20       	and	r0, r0
    4ffc:	1a f4       	brpl	.+6      	; 0x5004 <__divmodhi4_exit>

00004ffe <__divmodhi4_neg2>:
    4ffe:	70 95       	com	r23
    5000:	61 95       	neg	r22
    5002:	7f 4f       	sbci	r23, 0xFF	; 255

00005004 <__divmodhi4_exit>:
    5004:	08 95       	ret

00005006 <__divmodhi4_neg1>:
    5006:	f6 f7       	brtc	.-4      	; 0x5004 <__divmodhi4_exit>
    5008:	90 95       	com	r25
    500a:	81 95       	neg	r24
    500c:	9f 4f       	sbci	r25, 0xFF	; 255
    500e:	08 95       	ret

00005010 <__udivmodsi4>:
    5010:	a1 e2       	ldi	r26, 0x21	; 33
    5012:	1a 2e       	mov	r1, r26
    5014:	aa 1b       	sub	r26, r26
    5016:	bb 1b       	sub	r27, r27
    5018:	fd 01       	movw	r30, r26
    501a:	0d c0       	rjmp	.+26     	; 0x5036 <__udivmodsi4_ep>

0000501c <__udivmodsi4_loop>:
    501c:	aa 1f       	adc	r26, r26
    501e:	bb 1f       	adc	r27, r27
    5020:	ee 1f       	adc	r30, r30
    5022:	ff 1f       	adc	r31, r31
    5024:	a2 17       	cp	r26, r18
    5026:	b3 07       	cpc	r27, r19
    5028:	e4 07       	cpc	r30, r20
    502a:	f5 07       	cpc	r31, r21
    502c:	20 f0       	brcs	.+8      	; 0x5036 <__udivmodsi4_ep>
    502e:	a2 1b       	sub	r26, r18
    5030:	b3 0b       	sbc	r27, r19
    5032:	e4 0b       	sbc	r30, r20
    5034:	f5 0b       	sbc	r31, r21

00005036 <__udivmodsi4_ep>:
    5036:	66 1f       	adc	r22, r22
    5038:	77 1f       	adc	r23, r23
    503a:	88 1f       	adc	r24, r24
    503c:	99 1f       	adc	r25, r25
    503e:	1a 94       	dec	r1
    5040:	69 f7       	brne	.-38     	; 0x501c <__udivmodsi4_loop>
    5042:	60 95       	com	r22
    5044:	70 95       	com	r23
    5046:	80 95       	com	r24
    5048:	90 95       	com	r25
    504a:	9b 01       	movw	r18, r22
    504c:	ac 01       	movw	r20, r24
    504e:	bd 01       	movw	r22, r26
    5050:	cf 01       	movw	r24, r30
    5052:	08 95       	ret

00005054 <__divmodsi4>:
    5054:	97 fb       	bst	r25, 7
    5056:	09 2e       	mov	r0, r25
    5058:	05 26       	eor	r0, r21
    505a:	0e d0       	rcall	.+28     	; 0x5078 <__divmodsi4_neg1>
    505c:	57 fd       	sbrc	r21, 7
    505e:	04 d0       	rcall	.+8      	; 0x5068 <__divmodsi4_neg2>
    5060:	d7 df       	rcall	.-82     	; 0x5010 <__udivmodsi4>
    5062:	0a d0       	rcall	.+20     	; 0x5078 <__divmodsi4_neg1>
    5064:	00 1c       	adc	r0, r0
    5066:	38 f4       	brcc	.+14     	; 0x5076 <__divmodsi4_exit>

00005068 <__divmodsi4_neg2>:
    5068:	50 95       	com	r21
    506a:	40 95       	com	r20
    506c:	30 95       	com	r19
    506e:	21 95       	neg	r18
    5070:	3f 4f       	sbci	r19, 0xFF	; 255
    5072:	4f 4f       	sbci	r20, 0xFF	; 255
    5074:	5f 4f       	sbci	r21, 0xFF	; 255

00005076 <__divmodsi4_exit>:
    5076:	08 95       	ret

00005078 <__divmodsi4_neg1>:
    5078:	f6 f7       	brtc	.-4      	; 0x5076 <__divmodsi4_exit>
    507a:	90 95       	com	r25
    507c:	80 95       	com	r24
    507e:	70 95       	com	r23
    5080:	61 95       	neg	r22
    5082:	7f 4f       	sbci	r23, 0xFF	; 255
    5084:	8f 4f       	sbci	r24, 0xFF	; 255
    5086:	9f 4f       	sbci	r25, 0xFF	; 255
    5088:	08 95       	ret

0000508a <_exit>:
    508a:	f8 94       	cli

0000508c <__stop_program>:
    508c:	ff cf       	rjmp	.-2      	; 0x508c <__stop_program>
