(lp0
(S'cppflags'
p1
ccopy_reg
_reconstructor
p2
(cino.utils
SpaceList
p3
c__builtin__
list
p4
(lp5
S'-mmcu=atmega328p'
p6
aS'-DF_CPU=16000000L'
p7
aS'-DARDUINO=105'
p8
aS'-I/usr/share/arduino/hardware/arduino/cores/arduino'
p9
aS'-ffunction-sections'
p10
aS'-fdata-sections'
p11
aS'-g'
p12
aS'-Os'
p13
aS'-w'
p14
aS'-I/usr/share/arduino/hardware/arduino/variants/standard'
p15
aS'-I/usr/share/arduino/libraries/Stepper'
p16
aS'-I/usr/share/arduino/hardware/arduino/cores/arduino'
p17
aS'-I/usr/share/arduino/hardware/arduino/cores/arduino/avr-libc'
p18
atp19
Rp20
tp21
a(S'version.txt'
p22
S'/usr/share/arduino/lib/version.txt'
p23
tp24
a(S'used_libs'
p25
(lp26
S'/usr/share/arduino/libraries/Stepper'
p27
aS'/usr/share/arduino/hardware/arduino/cores/arduino'
p28
atp29
a(S'cxx'
p30
S'/usr/share/arduino/hardware/tools/avr/bin/avr-g++'
p31
tp32
a(S'make'
p33
S'/usr/share/arduino/hardware/tools/avr/bin/make'
p34
tp35
a(S'cflags'
p36
g2
(g3
g4
(lp37
tp38
Rp39
tp40
a(S'build_dir'
p41
S'.build/uno'
p42
tp43
a(S'arduino_core_dir'
p44
g28
tp45
a(S'boards.txt'
p46
(lp47
S'/usr/share/arduino/hardware/arduino/boards.txt'
p48
atp49
a(S'cxxflags'
p50
g2
(g3
g4
(lp51
S'-fno-exceptions'
p52
atp53
Rp54
tp55
a(S'arduino_variants_dir'
p56
S'/usr/share/arduino/hardware/arduino/variants'
p57
tp58
a(S'ar'
p59
S'/usr/share/arduino/hardware/tools/avr/bin/avr-ar'
p60
tp61
a(S'names'
p62
(dp63
S'cpp'
p64
S'%s.cpp'
p65
sS'obj'
p66
S'%s.o'
p67
sS'deps'
p68
S'%s.d'
p69
sS'lib'
p70
S'lib%s.a'
p71
stp72
a(S'deps'
p73
g2
(g3
g4
(lp74
S'.build/uno/src/dependencies.d'
p75
aS'.build/uno/Stepper/dependencies.d'
p76
aS'.build/uno/arduino/dependencies.d'
p77
atp78
Rp79
tp80
a(S'ldflags'
p81
g2
(g3
g4
(lp82
g6
aS'-Wl,-Os'
p83
aS'-Wl,--gc-sections'
p84
atp85
Rp86
tp87
a(S'arduino_libraries_dir'
p88
S'/usr/share/arduino/libraries'
p89
tp90
a(S'arduino_lib_version'
p91
g2
(cino.environment
Version
p92
c__builtin__
tuple
p93
(I1
I0
I5
tp94
tp95
Rp96
tp97
a(S'objcopy'
p98
S'/usr/share/arduino/hardware/tools/avr/bin/avr-objcopy'
p99
tp100
a(S'board_models'
p101
cino.environment
BoardModels
p102
((lp103
(lp104
S'uno'
p105
a(dp106
S'_coredir'
p107
S'/usr/share/arduino/hardware/arduino'
p108
sS'bootloader'
p109
(dp110
S'extended_fuses'
p111
S'0x05'
p112
sS'high_fuses'
p113
S'0xde'
p114
sS'low_fuses'
p115
S'0xff'
p116
sS'lock_bits'
p117
S'0x0F'
p118
sS'file'
p119
S'optiboot_atmega328.hex'
p120
sS'path'
p121
S'optiboot'
p122
sS'unlock_bits'
p123
S'0x3F'
p124
ssS'upload'
p125
(dp126
S'protocol'
p127
S'arduino'
p128
sS'maximum_size'
p129
S'32256'
p130
sS'speed'
p131
S'115200'
p132
ssS'name'
p133
S'Arduino Uno'
p134
sS'build'
p135
(dp136
S'core'
p137
S'arduino'
p138
sS'mcu'
p139
S'atmega328p'
p140
sS'f_cpu'
p141
S'16000000L'
p142
sS'variant'
p143
S'standard'
p144
ssaa(lp145
S'atmega328'
p146
a(dp147
g107
S'/usr/share/arduino/hardware/arduino'
p148
sS'bootloader'
p149
(dp150
S'extended_fuses'
p151
S'0x05'
p152
sS'high_fuses'
p153
S'0xDA'
p154
sS'low_fuses'
p155
S'0xFF'
p156
sS'lock_bits'
p157
S'0x0F'
p158
sS'file'
p159
S'ATmegaBOOT_168_atmega328.hex'
p160
sS'path'
p161
S'atmega'
p162
sS'unlock_bits'
p163
S'0x3F'
p164
ssS'upload'
p165
(dp166
S'protocol'
p167
S'arduino'
p168
sS'maximum_size'
p169
S'30720'
p170
sS'speed'
p171
S'57600'
p172
ssS'name'
p173
S'Arduino Duemilanove w/ ATmega328'
p174
sS'build'
p175
(dp176
S'core'
p177
S'arduino'
p178
sS'mcu'
p179
S'atmega328p'
p180
sS'f_cpu'
p181
S'16000000L'
p182
sS'variant'
p183
S'standard'
p184
ssaa(lp185
S'diecimila'
p186
a(dp187
g107
S'/usr/share/arduino/hardware/arduino'
p188
sS'bootloader'
p189
(dp190
S'extended_fuses'
p191
S'0x00'
p192
sS'high_fuses'
p193
S'0xdd'
p194
sS'low_fuses'
p195
S'0xff'
p196
sS'lock_bits'
p197
S'0x0F'
p198
sS'file'
p199
S'ATmegaBOOT_168_diecimila.hex'
p200
sS'path'
p201
S'atmega'
p202
sS'unlock_bits'
p203
S'0x3F'
p204
ssS'upload'
p205
(dp206
S'protocol'
p207
S'arduino'
p208
sS'maximum_size'
p209
S'14336'
p210
sS'speed'
p211
S'19200'
p212
ssS'name'
p213
S'Arduino Diecimila or Duemilanove w/ ATmega168'
p214
sS'build'
p215
(dp216
S'core'
p217
S'arduino'
p218
sS'mcu'
p219
S'atmega168'
p220
sS'f_cpu'
p221
S'16000000L'
p222
sS'variant'
p223
S'standard'
p224
ssaa(lp225
S'nano328'
p226
a(dp227
g107
S'/usr/share/arduino/hardware/arduino'
p228
sS'bootloader'
p229
(dp230
S'extended_fuses'
p231
S'0x05'
p232
sS'high_fuses'
p233
S'0xDA'
p234
sS'low_fuses'
p235
S'0xFF'
p236
sS'lock_bits'
p237
S'0x0F'
p238
sS'file'
p239
S'ATmegaBOOT_168_atmega328.hex'
p240
sS'path'
p241
S'atmega'
p242
sS'unlock_bits'
p243
S'0x3F'
p244
ssS'upload'
p245
(dp246
S'protocol'
p247
S'arduino'
p248
sS'maximum_size'
p249
S'30720'
p250
sS'speed'
p251
S'57600'
p252
ssS'name'
p253
S'Arduino Nano w/ ATmega328'
p254
sS'build'
p255
(dp256
S'core'
p257
S'arduino'
p258
sS'mcu'
p259
S'atmega328p'
p260
sS'f_cpu'
p261
S'16000000L'
p262
sS'variant'
p263
S'eightanaloginputs'
p264
ssaa(lp265
S'nano'
p266
a(dp267
g107
S'/usr/share/arduino/hardware/arduino'
p268
sS'bootloader'
p269
(dp270
S'extended_fuses'
p271
S'0x00'
p272
sS'high_fuses'
p273
S'0xdd'
p274
sS'low_fuses'
p275
S'0xff'
p276
sS'lock_bits'
p277
S'0x0F'
p278
sS'file'
p279
S'ATmegaBOOT_168_diecimila.hex'
p280
sS'path'
p281
S'atmega'
p282
sS'unlock_bits'
p283
S'0x3F'
p284
ssS'upload'
p285
(dp286
S'protocol'
p287
S'arduino'
p288
sS'maximum_size'
p289
S'14336'
p290
sS'speed'
p291
S'19200'
p292
ssS'name'
p293
S'Arduino Nano w/ ATmega168'
p294
sS'build'
p295
(dp296
S'core'
p297
S'arduino'
p298
sS'mcu'
p299
S'atmega168'
p300
sS'f_cpu'
p301
S'16000000L'
p302
sS'variant'
p303
S'eightanaloginputs'
p304
ssaa(lp305
S'mega2560'
p306
a(dp307
g107
S'/usr/share/arduino/hardware/arduino'
p308
sS'bootloader'
p309
(dp310
S'extended_fuses'
p311
S'0xFD'
p312
sS'high_fuses'
p313
S'0xD8'
p314
sS'low_fuses'
p315
S'0xFF'
p316
sS'lock_bits'
p317
S'0x0F'
p318
sS'file'
p319
S'stk500boot_v2_mega2560.hex'
p320
sS'path'
p321
S'stk500v2'
p322
sS'unlock_bits'
p323
S'0x3F'
p324
ssS'upload'
p325
(dp326
S'protocol'
p327
S'wiring'
p328
sS'maximum_size'
p329
S'258048'
p330
sS'speed'
p331
S'115200'
p332
ssS'name'
p333
S'Arduino Mega 2560 or Mega ADK'
p334
sS'build'
p335
(dp336
S'core'
p337
S'arduino'
p338
sS'mcu'
p339
S'atmega2560'
p340
sS'f_cpu'
p341
S'16000000L'
p342
sS'variant'
p343
S'mega'
p344
ssaa(lp345
S'mega'
p346
a(dp347
g107
S'/usr/share/arduino/hardware/arduino'
p348
sS'bootloader'
p349
(dp350
S'extended_fuses'
p351
S'0xF5'
p352
sS'high_fuses'
p353
S'0xDA'
p354
sS'low_fuses'
p355
S'0xFF'
p356
sS'lock_bits'
p357
S'0x0F'
p358
sS'file'
p359
S'ATmegaBOOT_168_atmega1280.hex'
p360
sS'path'
p361
S'atmega'
p362
sS'unlock_bits'
p363
S'0x3F'
p364
ssS'upload'
p365
(dp366
S'protocol'
p367
S'arduino'
p368
sS'maximum_size'
p369
S'126976'
p370
sS'speed'
p371
S'57600'
p372
ssS'name'
p373
S'Arduino Mega (ATmega1280)'
p374
sS'build'
p375
(dp376
S'core'
p377
S'arduino'
p378
sS'mcu'
p379
S'atmega1280'
p380
sS'f_cpu'
p381
S'16000000L'
p382
sS'variant'
p383
S'mega'
p384
ssaa(lp385
S'leonardo'
p386
a(dp387
g107
S'/usr/share/arduino/hardware/arduino'
p388
sS'bootloader'
p389
(dp390
S'extended_fuses'
p391
S'0xcb'
p392
sS'high_fuses'
p393
S'0xd8'
p394
sS'low_fuses'
p395
S'0xff'
p396
sS'lock_bits'
p397
S'0x2F'
p398
sS'file'
p399
S'Caterina-Leonardo.hex'
p400
sS'path'
p401
S'caterina'
p402
sS'unlock_bits'
p403
S'0x3F'
p404
ssS'upload'
p405
(dp406
S'protocol'
p407
S'avr109'
p408
sS'maximum_size'
p409
S'28672'
p410
sS'speed'
p411
S'57600'
p412
sS'disable_flushing'
p413
S'true'
p414
ssS'name'
p415
S'Arduino Leonardo'
p416
sS'build'
p417
(dp418
S'core'
p419
S'arduino'
p420
sS'f_cpu'
p421
S'16000000L'
p422
sS'vid'
p423
S'0x2341'
p424
sS'pid'
p425
S'0x8036'
p426
sS'variant'
p427
S'leonardo'
p428
sS'mcu'
p429
S'atmega32u4'
p430
ssaa(lp431
S'esplora'
p432
a(dp433
g107
S'/usr/share/arduino/hardware/arduino'
p434
sS'bootloader'
p435
(dp436
S'extended_fuses'
p437
S'0xcb'
p438
sS'high_fuses'
p439
S'0xd8'
p440
sS'low_fuses'
p441
S'0xff'
p442
sS'lock_bits'
p443
S'0x2F'
p444
sS'file'
p445
S'Caterina-Esplora.hex'
p446
sS'path'
p447
S'caterina'
p448
sS'unlock_bits'
p449
S'0x3F'
p450
ssS'upload'
p451
(dp452
S'protocol'
p453
S'avr109'
p454
sS'maximum_size'
p455
S'28672'
p456
sS'speed'
p457
S'57600'
p458
sS'disable_flushing'
p459
S'true'
p460
ssS'name'
p461
S'Arduino Esplora'
p462
sS'build'
p463
(dp464
S'core'
p465
S'arduino'
p466
sS'f_cpu'
p467
S'16000000L'
p468
sS'vid'
p469
S'0x2341'
p470
sS'pid'
p471
S'0x803C'
p472
sS'variant'
p473
S'leonardo'
p474
sS'mcu'
p475
S'atmega32u4'
p476
ssaa(lp477
S'micro'
p478
a(dp479
g107
S'/usr/share/arduino/hardware/arduino'
p480
sS'bootloader'
p481
(dp482
S'extended_fuses'
p483
S'0xcb'
p484
sS'high_fuses'
p485
S'0xd8'
p486
sS'low_fuses'
p487
S'0xff'
p488
sS'lock_bits'
p489
S'0x2F'
p490
sS'file'
p491
S'Caterina-Micro.hex'
p492
sS'path'
p493
S'caterina'
p494
sS'unlock_bits'
p495
S'0x3F'
p496
ssS'upload'
p497
(dp498
S'protocol'
p499
S'avr109'
p500
sS'maximum_size'
p501
S'28672'
p502
sS'speed'
p503
S'57600'
p504
sS'disable_flushing'
p505
S'true'
p506
ssS'name'
p507
S'Arduino Micro'
p508
sS'build'
p509
(dp510
S'core'
p511
S'arduino'
p512
sS'f_cpu'
p513
S'16000000L'
p514
sS'vid'
p515
S'0x2341'
p516
sS'pid'
p517
S'0x8037'
p518
sS'variant'
p519
S'micro'
p520
sS'mcu'
p521
S'atmega32u4'
p522
ssaa(lp523
S'mini328'
p524
a(dp525
g107
S'/usr/share/arduino/hardware/arduino'
p526
sS'bootloader'
p527
(dp528
S'extended_fuses'
p529
S'0x05'
p530
sS'high_fuses'
p531
S'0xd8'
p532
sS'low_fuses'
p533
S'0xff'
p534
sS'lock_bits'
p535
S'0x0F'
p536
sS'file'
p537
S'optiboot_atmega328-Mini.hex'
p538
sS'path'
p539
S'optiboot'
p540
sS'unlock_bits'
p541
S'0x3F'
p542
ssS'upload'
p543
(dp544
S'protocol'
p545
S'arduino'
p546
sS'maximum_size'
p547
S'28672'
p548
sS'speed'
p549
S'115200'
p550
ssS'name'
p551
S'Arduino Mini w/ ATmega328'
p552
sS'build'
p553
(dp554
S'core'
p555
S'arduino'
p556
sS'mcu'
p557
S'atmega328p'
p558
sS'f_cpu'
p559
S'16000000L'
p560
sS'variant'
p561
S'eightanaloginputs'
p562
ssaa(lp563
S'mini'
p564
a(dp565
g107
S'/usr/share/arduino/hardware/arduino'
p566
sS'bootloader'
p567
(dp568
S'extended_fuses'
p569
S'0x00'
p570
sS'high_fuses'
p571
S'0xdd'
p572
sS'low_fuses'
p573
S'0xff'
p574
sS'lock_bits'
p575
S'0x0F'
p576
sS'file'
p577
S'ATmegaBOOT_168_ng.hex'
p578
sS'path'
p579
S'atmega'
p580
sS'unlock_bits'
p581
S'0x3F'
p582
ssS'upload'
p583
(dp584
S'protocol'
p585
S'arduino'
p586
sS'maximum_size'
p587
S'14336'
p588
sS'speed'
p589
S'19200'
p590
ssS'name'
p591
S'Arduino Mini w/ ATmega168'
p592
sS'build'
p593
(dp594
S'core'
p595
S'arduino'
p596
sS'mcu'
p597
S'atmega168'
p598
sS'f_cpu'
p599
S'16000000L'
p600
sS'variant'
p601
S'eightanaloginputs'
p602
ssaa(lp603
S'ethernet'
p604
a(dp605
g107
S'/usr/share/arduino/hardware/arduino'
p606
sS'bootloader'
p607
(dp608
S'extended_fuses'
p609
S'0x05'
p610
sS'high_fuses'
p611
S'0xde'
p612
sS'low_fuses'
p613
S'0xff'
p614
sS'lock_bits'
p615
S'0x0F'
p616
sS'file'
p617
S'optiboot_atmega328.hex'
p618
sS'path'
p619
S'optiboot'
p620
sS'unlock_bits'
p621
S'0x3F'
p622
ssS'upload'
p623
(dp624
S'protocol'
p625
S'arduino'
p626
sS'maximum_size'
p627
S'32256'
p628
sS'speed'
p629
S'115200'
p630
ssS'name'
p631
S'Arduino Ethernet'
p632
sS'build'
p633
(dp634
S'variant'
p635
S'standard'
p636
sS'mcu'
p637
S'atmega328p'
p638
sS'f_cpu'
p639
S'16000000L'
p640
sS'core'
p641
S'arduino'
p642
ssaa(lp643
S'fio'
p644
a(dp645
g107
S'/usr/share/arduino/hardware/arduino'
p646
sS'bootloader'
p647
(dp648
S'extended_fuses'
p649
S'0x05'
p650
sS'high_fuses'
p651
S'0xDA'
p652
sS'low_fuses'
p653
S'0xFF'
p654
sS'lock_bits'
p655
S'0x0F'
p656
sS'file'
p657
S'ATmegaBOOT_168_atmega328_pro_8MHz.hex'
p658
sS'path'
p659
S'arduino:atmega'
p660
sS'unlock_bits'
p661
S'0x3F'
p662
ssS'upload'
p663
(dp664
S'protocol'
p665
S'arduino'
p666
sS'maximum_size'
p667
S'30720'
p668
sS'speed'
p669
S'57600'
p670
ssS'name'
p671
S'Arduino Fio'
p672
sS'build'
p673
(dp674
S'core'
p675
S'arduino'
p676
sS'mcu'
p677
S'atmega328p'
p678
sS'f_cpu'
p679
S'8000000L'
p680
sS'variant'
p681
S'eightanaloginputs'
p682
ssaa(lp683
S'bt328'
p684
a(dp685
g107
S'/usr/share/arduino/hardware/arduino'
p686
sS'bootloader'
p687
(dp688
S'extended_fuses'
p689
S'0x05'
p690
sS'high_fuses'
p691
S'0xd8'
p692
sS'low_fuses'
p693
S'0xff'
p694
sS'lock_bits'
p695
S'0x0F'
p696
sS'file'
p697
S'ATmegaBOOT_168_atmega328_bt.hex'
p698
sS'path'
p699
S'bt'
p700
sS'unlock_bits'
p701
S'0x3F'
p702
ssS'upload'
p703
(dp704
S'protocol'
p705
S'arduino'
p706
sS'maximum_size'
p707
S'28672'
p708
sS'speed'
p709
S'19200'
p710
sS'disable_flushing'
p711
S'true'
p712
ssS'name'
p713
S'Arduino BT w/ ATmega328'
p714
sS'build'
p715
(dp716
S'core'
p717
S'arduino'
p718
sS'mcu'
p719
S'atmega328p'
p720
sS'f_cpu'
p721
S'16000000L'
p722
sS'variant'
p723
S'eightanaloginputs'
p724
ssaa(lp725
S'bt'
p726
a(dp727
g107
S'/usr/share/arduino/hardware/arduino'
p728
sS'bootloader'
p729
(dp730
S'extended_fuses'
p731
S'0x00'
p732
sS'high_fuses'
p733
S'0xdd'
p734
sS'low_fuses'
p735
S'0xff'
p736
sS'lock_bits'
p737
S'0x0F'
p738
sS'file'
p739
S'ATmegaBOOT_168.hex'
p740
sS'path'
p741
S'bt'
p742
sS'unlock_bits'
p743
S'0x3F'
p744
ssS'upload'
p745
(dp746
S'protocol'
p747
S'arduino'
p748
sS'maximum_size'
p749
S'14336'
p750
sS'speed'
p751
S'19200'
p752
sS'disable_flushing'
p753
S'true'
p754
ssS'name'
p755
S'Arduino BT w/ ATmega168'
p756
sS'build'
p757
(dp758
S'core'
p759
S'arduino'
p760
sS'mcu'
p761
S'atmega168'
p762
sS'f_cpu'
p763
S'16000000L'
p764
sS'variant'
p765
S'eightanaloginputs'
p766
ssaa(lp767
S'LilyPadUSB'
p768
a(dp769
g107
S'/usr/share/arduino/hardware/arduino'
p770
sS'bootloader'
p771
(dp772
S'extended_fuses'
p773
S'0xce'
p774
sS'high_fuses'
p775
S'0xd8'
p776
sS'low_fuses'
p777
S'0xff'
p778
sS'lock_bits'
p779
S'0x2F'
p780
sS'file'
p781
S'Caterina-LilyPadUSB.hex'
p782
sS'path'
p783
S'caterina-LilyPadUSB'
p784
sS'unlock_bits'
p785
S'0x3F'
p786
ssS'upload'
p787
(dp788
S'protocol'
p789
S'avr109'
p790
sS'maximum_size'
p791
S'28672'
p792
sS'speed'
p793
S'57600'
p794
sS'disable_flushing'
p795
S'true'
p796
ssS'name'
p797
S'LilyPad Arduino USB'
p798
sS'build'
p799
(dp800
S'core'
p801
S'arduino'
p802
sS'f_cpu'
p803
S'8000000L'
p804
sS'vid'
p805
S'0x1B4F'
p806
sS'pid'
p807
S'0x9208'
p808
sS'variant'
p809
S'leonardo'
p810
sS'mcu'
p811
S'atmega32u4'
p812
ssaa(lp813
S'lilypad328'
p814
a(dp815
g107
S'/usr/share/arduino/hardware/arduino'
p816
sS'bootloader'
p817
(dp818
S'extended_fuses'
p819
S'0x05'
p820
sS'high_fuses'
p821
S'0xDA'
p822
sS'low_fuses'
p823
S'0xFF'
p824
sS'lock_bits'
p825
S'0x0F'
p826
sS'file'
p827
S'ATmegaBOOT_168_atmega328_pro_8MHz.hex'
p828
sS'path'
p829
S'atmega'
p830
sS'unlock_bits'
p831
S'0x3F'
p832
ssS'upload'
p833
(dp834
S'protocol'
p835
S'arduino'
p836
sS'maximum_size'
p837
S'30720'
p838
sS'speed'
p839
S'57600'
p840
ssS'name'
p841
S'LilyPad Arduino w/ ATmega328'
p842
sS'build'
p843
(dp844
S'core'
p845
S'arduino'
p846
sS'mcu'
p847
S'atmega328p'
p848
sS'f_cpu'
p849
S'8000000L'
p850
sS'variant'
p851
S'standard'
p852
ssaa(lp853
S'lilypad'
p854
a(dp855
g107
S'/usr/share/arduino/hardware/arduino'
p856
sS'bootloader'
p857
(dp858
S'extended_fuses'
p859
S'0x00'
p860
sS'high_fuses'
p861
S'0xdd'
p862
sS'low_fuses'
p863
S'0xe2'
p864
sS'lock_bits'
p865
S'0x0F'
p866
sS'file'
p867
S'LilyPadBOOT_168.hex'
p868
sS'path'
p869
S'lilypad'
p870
sS'unlock_bits'
p871
S'0x3F'
p872
ssS'upload'
p873
(dp874
S'protocol'
p875
S'arduino'
p876
sS'maximum_size'
p877
S'14336'
p878
sS'speed'
p879
S'19200'
p880
ssS'name'
p881
S'LilyPad Arduino w/ ATmega168'
p882
sS'build'
p883
(dp884
S'core'
p885
S'arduino'
p886
sS'mcu'
p887
S'atmega168'
p888
sS'f_cpu'
p889
S'8000000L'
p890
sS'variant'
p891
S'standard'
p892
ssaa(lp893
S'pro5v328'
p894
a(dp895
g107
S'/usr/share/arduino/hardware/arduino'
p896
sS'bootloader'
p897
(dp898
S'extended_fuses'
p899
S'0x05'
p900
sS'high_fuses'
p901
S'0xDA'
p902
sS'low_fuses'
p903
S'0xFF'
p904
sS'lock_bits'
p905
S'0x0F'
p906
sS'file'
p907
S'ATmegaBOOT_168_atmega328.hex'
p908
sS'path'
p909
S'atmega'
p910
sS'unlock_bits'
p911
S'0x3F'
p912
ssS'upload'
p913
(dp914
S'protocol'
p915
S'arduino'
p916
sS'maximum_size'
p917
S'30720'
p918
sS'speed'
p919
S'57600'
p920
ssS'name'
p921
S'Arduino Pro or Pro Mini (5V, 16 MHz) w/ ATmega328'
p922
sS'build'
p923
(dp924
S'core'
p925
S'arduino'
p926
sS'mcu'
p927
S'atmega328p'
p928
sS'f_cpu'
p929
S'16000000L'
p930
sS'variant'
p931
S'standard'
p932
ssaa(lp933
S'pro5v'
p934
a(dp935
g107
S'/usr/share/arduino/hardware/arduino'
p936
sS'bootloader'
p937
(dp938
S'extended_fuses'
p939
S'0x00'
p940
sS'high_fuses'
p941
S'0xdd'
p942
sS'low_fuses'
p943
S'0xff'
p944
sS'lock_bits'
p945
S'0x0F'
p946
sS'file'
p947
S'ATmegaBOOT_168_diecimila.hex'
p948
sS'path'
p949
S'atmega'
p950
sS'unlock_bits'
p951
S'0x3F'
p952
ssS'upload'
p953
(dp954
S'protocol'
p955
S'arduino'
p956
sS'maximum_size'
p957
S'14336'
p958
sS'speed'
p959
S'19200'
p960
ssS'name'
p961
S'Arduino Pro or Pro Mini (5V, 16 MHz) w/ ATmega168'
p962
sS'build'
p963
(dp964
S'core'
p965
S'arduino'
p966
sS'mcu'
p967
S'atmega168'
p968
sS'f_cpu'
p969
S'16000000L'
p970
sS'variant'
p971
S'standard'
p972
ssaa(lp973
S'pro328'
p974
a(dp975
g107
S'/usr/share/arduino/hardware/arduino'
p976
sS'bootloader'
p977
(dp978
S'extended_fuses'
p979
S'0x05'
p980
sS'high_fuses'
p981
S'0xDA'
p982
sS'low_fuses'
p983
S'0xFF'
p984
sS'lock_bits'
p985
S'0x0F'
p986
sS'file'
p987
S'ATmegaBOOT_168_atmega328_pro_8MHz.hex'
p988
sS'path'
p989
S'atmega'
p990
sS'unlock_bits'
p991
S'0x3F'
p992
ssS'upload'
p993
(dp994
S'protocol'
p995
S'arduino'
p996
sS'maximum_size'
p997
S'30720'
p998
sS'speed'
p999
S'57600'
p1000
ssS'name'
p1001
S'Arduino Pro or Pro Mini (3.3V, 8 MHz) w/ ATmega328'
p1002
sS'build'
p1003
(dp1004
S'core'
p1005
S'arduino'
p1006
sS'mcu'
p1007
S'atmega328p'
p1008
sS'f_cpu'
p1009
S'8000000L'
p1010
sS'variant'
p1011
S'standard'
p1012
ssaa(lp1013
S'pro'
p1014
a(dp1015
g107
S'/usr/share/arduino/hardware/arduino'
p1016
sS'bootloader'
p1017
(dp1018
S'extended_fuses'
p1019
S'0x00'
p1020
sS'high_fuses'
p1021
S'0xdd'
p1022
sS'low_fuses'
p1023
S'0xc6'
p1024
sS'lock_bits'
p1025
S'0x0F'
p1026
sS'file'
p1027
S'ATmegaBOOT_168_pro_8MHz.hex'
p1028
sS'path'
p1029
S'atmega'
p1030
sS'unlock_bits'
p1031
S'0x3F'
p1032
ssS'upload'
p1033
(dp1034
S'protocol'
p1035
S'arduino'
p1036
sS'maximum_size'
p1037
S'14336'
p1038
sS'speed'
p1039
S'19200'
p1040
ssS'name'
p1041
S'Arduino Pro or Pro Mini (3.3V, 8 MHz) w/ ATmega168'
p1042
sS'build'
p1043
(dp1044
S'core'
p1045
S'arduino'
p1046
sS'mcu'
p1047
S'atmega168'
p1048
sS'f_cpu'
p1049
S'8000000L'
p1050
sS'variant'
p1051
S'standard'
p1052
ssaa(lp1053
S'atmega168'
p1054
a(dp1055
g107
S'/usr/share/arduino/hardware/arduino'
p1056
sS'bootloader'
p1057
(dp1058
S'extended_fuses'
p1059
S'0x00'
p1060
sS'high_fuses'
p1061
S'0xdd'
p1062
sS'low_fuses'
p1063
S'0xff'
p1064
sS'lock_bits'
p1065
S'0x0F'
p1066
sS'file'
p1067
S'ATmegaBOOT_168_ng.hex'
p1068
sS'path'
p1069
S'atmega'
p1070
sS'unlock_bits'
p1071
S'0x3F'
p1072
ssS'upload'
p1073
(dp1074
S'protocol'
p1075
S'arduino'
p1076
sS'maximum_size'
p1077
S'14336'
p1078
sS'speed'
p1079
S'19200'
p1080
ssS'name'
p1081
S'Arduino NG or older w/ ATmega168'
p1082
sS'build'
p1083
(dp1084
S'core'
p1085
S'arduino'
p1086
sS'mcu'
p1087
S'atmega168'
p1088
sS'f_cpu'
p1089
S'16000000L'
p1090
sS'variant'
p1091
S'standard'
p1092
ssaa(lp1093
S'atmega8'
p1094
a(dp1095
g107
S'/usr/share/arduino/hardware/arduino'
p1096
sS'bootloader'
p1097
(dp1098
S'high_fuses'
p1099
S'0xca'
p1100
sS'low_fuses'
p1101
S'0xdf'
p1102
sS'lock_bits'
p1103
S'0x0F'
p1104
sS'file'
p1105
S'ATmegaBOOT-prod-firmware-2009-11-07.hex'
p1106
sS'path'
p1107
S'atmega8'
p1108
sS'unlock_bits'
p1109
S'0x3F'
p1110
ssS'upload'
p1111
(dp1112
S'protocol'
p1113
S'arduino'
p1114
sS'maximum_size'
p1115
S'7168'
p1116
sS'speed'
p1117
S'19200'
p1118
ssS'name'
p1119
S'Arduino NG or older w/ ATmega8'
p1120
sS'build'
p1121
(dp1122
S'core'
p1123
S'arduino'
p1124
sS'mcu'
p1125
S'atmega8'
p1126
sS'f_cpu'
p1127
S'16000000L'
p1128
sS'variant'
p1129
S'standard'
p1130
ssaa(lp1131
S'robotControl'
p1132
a(dp1133
g107
S'/usr/share/arduino/hardware/arduino'
p1134
sS'bootloader'
p1135
(dp1136
S'extended_fuses'
p1137
S'0xcb'
p1138
sS'high_fuses'
p1139
S'0xd8'
p1140
sS'low_fuses'
p1141
S'0xff'
p1142
sS'lock_bits'
p1143
S'0x2F'
p1144
sS'file'
p1145
S'Caterina-Robot-Control.hex'
p1146
sS'path'
p1147
S'caterina-Arduino_Robot'
p1148
sS'unlock_bits'
p1149
S'0x3F'
p1150
ssS'upload'
p1151
(dp1152
S'protocol'
p1153
S'avr109'
p1154
sS'maximum_size'
p1155
S'28672'
p1156
sS'speed'
p1157
S'57600'
p1158
sS'disable_flushing'
p1159
S'true'
p1160
ssS'name'
p1161
S'Arduino Robot Control'
p1162
sS'build'
p1163
(dp1164
S'core'
p1165
S'robot'
p1166
sS'f_cpu'
p1167
S'16000000L'
p1168
sS'vid'
p1169
S'0x2341'
p1170
sS'pid'
p1171
S'0x8038'
p1172
sS'variant'
p1173
S'robot_control'
p1174
sS'mcu'
p1175
S'atmega32u4'
p1176
ssaa(lp1177
S'robotMotor'
p1178
a(dp1179
g107
S'/usr/share/arduino/hardware/arduino'
p1180
sS'bootloader'
p1181
(dp1182
S'extended_fuses'
p1183
S'0xcb'
p1184
sS'high_fuses'
p1185
S'0xd8'
p1186
sS'low_fuses'
p1187
S'0xff'
p1188
sS'lock_bits'
p1189
S'0x2F'
p1190
sS'file'
p1191
S'Caterina-Robot-Motor.hex'
p1192
sS'path'
p1193
S'caterina-Arduino_Robot'
p1194
sS'unlock_bits'
p1195
S'0x3F'
p1196
ssS'upload'
p1197
(dp1198
S'protocol'
p1199
S'avr109'
p1200
sS'maximum_size'
p1201
S'28672'
p1202
sS'speed'
p1203
S'57600'
p1204
sS'disable_flushing'
p1205
S'true'
p1206
ssS'name'
p1207
S'Arduino Robot Motor'
p1208
sS'build'
p1209
(dp1210
S'core'
p1211
S'robot'
p1212
sS'f_cpu'
p1213
S'16000000L'
p1214
sS'vid'
p1215
S'0x2341'
p1216
sS'pid'
p1217
S'0x8039'
p1218
sS'variant'
p1219
S'robot_motor'
p1220
sS'mcu'
p1221
S'atmega32u4'
p1222
ssaatp1223
Rp1224
(dp1225
S'default'
p1226
S'uno'
p1227
sbtp1228
a(S'cc'
p1229
S'/usr/share/arduino/hardware/tools/avr/bin/avr-gcc'
p1230
tp1231
a.